 fftw3

 Timestamp is 3fb3638b (Thu Nov 13 11:57:15 2003)

 Preferred load address is 10000000

 Start         Length     Name                   Class
 0001:00000000 0019cb26H .text                   CODE
 0002:00000000 0000004cH .idata$5                DATA
 0002:0000004c 00000000H .rdata                  DATA
 0002:0000004c 00000028H .idata$2                DATA
 0002:00000074 00000014H .idata$3                DATA
 0002:00000088 0000004cH .idata$4                DATA
 0002:000000d4 000000d4H .idata$6                DATA
 0002:000001b0 000017a4H .edata                  DATA
 0003:00000000 00000004H .CRT$XCA                DATA
 0003:00000004 00000004H .CRT$XCZ                DATA
 0003:00000008 00000004H .CRT$XIA                DATA
 0003:0000000c 00000004H .CRT$XIZ                DATA
 0003:00000020 000052d0H .data                   DATA
 0003:00005300 0000017cH .bss                    DATA
 0004:00000000 0001f358H .data1                  DATA

  Address         Publics by Value              Rva+Base     Lib:Object

 0001:00000000       __CRT_INIT@12              10001000 f   msvcrt:crtdll.obj
 0001:000000ab       __DllMainCRTStartup@12     100010ab f   msvcrt:crtdll.obj
 0001:00000148       _free                      10001148 f   msvcrt:MSVCRT.dll
 0001:0000014e       __initterm                 1000114e f   msvcrt:MSVCRT.dll
 0001:00000154       _malloc                    10001154 f   msvcrt:MSVCRT.dll
 0001:0000015a       _DllMain@12                1000115a f   msvcrt:dllmain.obj
 0001:0000017c       _fftw_assertion_failed     1000117c f   FFTW3f:assert.obj
 0001:0000017c       _fftwf_assertion_failed    1000117c f   FFTW3f:assert.obj
 0001:0000017c       _fftwl_assertion_failed    1000117c f   FFTW3f:assert.obj
 0001:000001ac       _fftwf_the_planner         100011ac f   FFTW3f:the-planner.obj
 0001:000001d0       _fftwf_cleanup             100011d0 f   FFTW3f:the-planner.obj
 0001:000001ec       _fftwf_mkapiplan           100011ec f   FFTW3f:apiplan.obj
 0001:000002ac       _fftwf_destroy_plan        100012ac f   FFTW3f:apiplan.obj
 0001:000002d8       _fftwf_execute             100012d8 f   FFTW3f:execute.obj
 0001:000002d8       _fftw_execute              100012d8 f   FFTW3f:execute.obj
 0001:000002d8       _fftwl_execute             100012d8 f   FFTW3f:execute.obj
 0001:00000300       _fftwf_execute_dft         10001300 f   FFTW3f:execute-dft.obj
 0001:0000035c       _fftwf_execute_dft_c2r     1000135c f   FFTW3f:execute-dft-c2r.obj
 0001:00000390       _fftwf_execute_dft_r2c     10001390 f   FFTW3f:execute-dft-r2c.obj
 0001:000003c4       _fftwf_export_wisdom       100013c4 f   FFTW3f:export-wisdom.obj
 0001:00000400       _fftwf_export_wisdom_to_file 10001400 f   FFTW3f:export-wisdom-to-file.obj
 0001:00000470       _fftwf_export_wisdom_to_string 10001470 f   FFTW3f:export-wisdom-to-string.obj
 0001:000004c8       _fftwf_forget_wisdom       100014c8 f   FFTW3f:forget-wisdom.obj
 0001:000004dc       _fftwf_fprint_plan         100014dc f   FFTW3f:print-plan.obj
 0001:00000500       _fftwf_print_plan          10001500 f   FFTW3f:print-plan.obj
 0001:00000528       _fftwf_malloc              10001528 f   FFTW3f:alloc.obj
 0001:00000534       _fftwf_free                10001534 f   FFTW3f:alloc.obj
 0001:00000540       _fftwf_malloc_plain        10001540 f   FFTW3f:alloc.obj
 0001:00000578       _fftwf_ifree               10001578 f   FFTW3f:alloc.obj
 0001:00000584       _fftwf_ifree0              10001584 f   FFTW3f:alloc.obj
 0001:00000594       _fftw_import_system_wisdom 10001594 f   FFTW3f:import-system-wisdom.obj
 0001:00000594       _fftwl_import_system_wisdom 10001594 f   FFTW3f:import-system-wisdom.obj
 0001:00000594       _fftwf_import_system_wisdom 10001594 f   FFTW3f:import-system-wisdom.obj
 0001:000005a4       _fftwf_import_wisdom       100015a4 f   FFTW3f:import-wisdom.obj
 0001:00000610       _fftwf_import_wisdom_from_file 10001610 f   FFTW3f:import-wisdom-from-file.obj
 0001:00000674       _fftwf_import_wisdom_from_string 10001674 f   FFTW3f:import-wisdom-from-string.obj
 0001:000006e0       _fftwf_mkprinter_file      100016e0 f   FFTW3f:mkprinter-file.obj
 0001:00000708       _fftwf_mkplan              10001708 f   FFTW3f:plan.obj
 0001:0000073c       _fftwf_plan_destroy_internal 1000173c f   FFTW3f:plan.obj
 0001:00000768       _fftwl_plan_awake          10001768 f   FFTW3f:plan.obj
 0001:00000768       _fftw_plan_awake           10001768 f   FFTW3f:plan.obj
 0001:00000768       _fftwf_plan_awake          10001768 f   FFTW3f:plan.obj
 0001:000007a8       _fftwf_plan_dft            100017a8 f   FFTW3f:plan-dft.obj
 0001:000007d8       _fftwf_plan_dft_1d         100017d8 f   FFTW3f:plan-dft-1d.obj
 0001:000007f8       _fftwf_plan_dft_2d         100017f8 f   FFTW3f:plan-dft-2d.obj
 0001:0000082c       _fftwf_plan_dft_3d         1000182c f   FFTW3f:plan-dft-3d.obj
 0001:00000868       _fftwf_plan_dft_c2r        10001868 f   FFTW3f:plan-dft-c2r.obj
 0001:00000894       _fftwf_plan_dft_c2r_1d     10001894 f   FFTW3f:plan-dft-c2r-1d.obj
 0001:000008b0       _fftwf_plan_dft_c2r_2d     100018b0 f   FFTW3f:plan-dft-c2r-2d.obj
 0001:000008e0       _fftwf_plan_dft_c2r_3d     100018e0 f   FFTW3f:plan-dft-c2r-3d.obj
 0001:00000918       _fftwf_plan_dft_r2c        10001918 f   FFTW3f:plan-dft-r2c.obj
 0001:00000944       _fftwf_plan_dft_r2c_1d     10001944 f   FFTW3f:plan-dft-r2c-1d.obj
 0001:00000960       _fftwf_plan_dft_r2c_2d     10001960 f   FFTW3f:plan-dft-r2c-2d.obj
 0001:00000990       _fftwf_plan_dft_r2c_3d     10001990 f   FFTW3f:plan-dft-r2c-3d.obj
 0001:000009c8       _fftwf_plan_guru_dft       100019c8 f   FFTW3f:plan-guru-dft.obj
 0001:00000ac0       _fftwf_plan_guru_dft_c2r   10001ac0 f   FFTW3f:plan-guru-dft-c2r.obj
 0001:00000b98       _fftwf_plan_guru_dft_r2c   10001b98 f   FFTW3f:plan-guru-dft-r2c.obj
 0001:00000c5c       _fftwf_plan_guru_r2r       10001c5c f   FFTW3f:plan-guru-r2r.obj
 0001:00000d14       _fftwf_plan_guru_split_dft 10001d14 f   FFTW3f:plan-guru-split-dft.obj
 0001:00000e00       _fftwf_plan_guru_split_dft_c2r 10001e00 f   FFTW3f:plan-guru-split-dft-c2r.obj
 0001:00000ecc       _fftwf_plan_guru_split_dft_r2c 10001ecc f   FFTW3f:plan-guru-split-dft-r2c.obj
 0001:00000f7c       _fftwf_plan_many_dft       10001f7c f   FFTW3f:plan-many-dft.obj
 0001:000010ac       _fftwf_plan_many_dft_c2r   100020ac f   FFTW3f:plan-many-dft-c2r.obj
 0001:000011f8       _fftwf_plan_many_dft_r2c   100021f8 f   FFTW3f:plan-many-dft-r2c.obj
 0001:00001334       _fftwf_plan_many_r2r       10002334 f   FFTW3f:plan-many-r2r.obj
 0001:0000141c       _fftwf_plan_r2r            1000241c f   FFTW3f:plan-r2r.obj
 0001:0000144c       _fftwf_plan_r2r_1d         1000244c f   FFTW3f:plan-r2r-1d.obj
 0001:00001470       _fftwf_plan_r2r_2d         10002470 f   FFTW3f:plan-r2r-2d.obj
 0001:000014b4       _fftwf_plan_r2r_3d         100024b4 f   FFTW3f:plan-r2r-3d.obj
 0001:00001894       _fftwf_mkprinter           10002894 f   FFTW3f:print.obj
 0001:000018c8       _fftwf_printer_destroy     100028c8 f   FFTW3f:print.obj
 0001:00001a2c       _fftwf_problem_dft_p       10002a2c f   FFTW3f:problem.obj
 0001:00001a40       _fftwf_mkproblem_dft       10002a40 f   FFTW3f:problem.obj
 0001:00001adc       _fftwf_mkproblem_dft_d     10002adc f   FFTW3f:problem.obj
 0001:00001c78       _fftwf_problem_rdft2_p     10002c78 f   FFTW3f:problem2.obj
 0001:00001c8c       _fftwf_mkproblem_rdft2     10002c8c f   FFTW3f:problem2.obj
 0001:00001dbc       _fftwf_mkproblem_rdft2_d   10002dbc f   FFTW3f:problem2.obj
 0001:00002008       _fftwf_rdft_zerotens       10003008 f   FFTW3f:problem.obj
 0001:00002020       _fftwf_rdft_kind_str       10003020 f   FFTW3f:problem.obj
 0001:000020cc       _fftwf_problem_rdft_p      100030cc f   FFTW3f:problem.obj
 0001:000020e0       _fftwf_mkproblem_rdft      100030e0 f   FFTW3f:problem.obj
 0001:000023cc       _fftwf_mkproblem_rdft_d    100033cc f   FFTW3f:problem.obj
 0001:000023fc       _fftwf_mkproblem_rdft_1    100033fc f   FFTW3f:problem.obj
 0001:0000241c       _fftwf_mkproblem_rdft_1_d  1000341c f   FFTW3f:problem.obj
 0001:0000304c       _fftwf_mkplanner           1000404c f   FFTW3f:planner.obj
 0001:000030b8       _fftwf_planner_destroy     100040b8 f   FFTW3f:planner.obj
 0001:00003118       _fftw_mkplan_d             10004118 f   FFTW3f:planner.obj
 0001:00003118       _fftwl_mkplan_d            10004118 f   FFTW3f:planner.obj
 0001:00003118       _fftwf_mkplan_d            10004118 f   FFTW3f:planner.obj
 0001:0000313c       _fftwf_configure_planner   1000413c f   FFTW3f:configure.obj
 0001:00003158       _fftwf_mapflags            10004158 f   FFTW3f:mapflags.obj
 0001:0000331c       _fftwf_mkproblem           1000431c f   FFTW3f:problem.obj
 0001:00003634       _fftwf_mkscanner           10004634 f   FFTW3f:scan.obj
 0001:0000365c       _fftwf_ops_zero            1000465c f   FFTW3f:ops.obj
 0001:00003674       _fftwf_ops_other           10004674 f   FFTW3f:ops.obj
 0001:00003698       _fftw_ops_madd             10004698 f   FFTW3f:ops.obj
 0001:00003698       _fftwf_ops_madd            10004698 f   FFTW3f:ops.obj
 0001:00003698       _fftwl_ops_madd            10004698 f   FFTW3f:ops.obj
 0001:000036d8       _fftwf_ops_add             100046d8 f   FFTW3f:ops.obj
 0001:000036d8       _fftwl_ops_add             100046d8 f   FFTW3f:ops.obj
 0001:000036d8       _fftw_ops_add              100046d8 f   FFTW3f:ops.obj
 0001:000036f0       _fftwf_ops_madd2           100046f0 f   FFTW3f:ops.obj
 0001:000036f0       _fftw_ops_madd2            100046f0 f   FFTW3f:ops.obj
 0001:000036f0       _fftwl_ops_madd2           100046f0 f   FFTW3f:ops.obj
 0001:00003708       _fftwf_mktensor_iodims     10004708 f   FFTW3f:mktensor-iodims.obj
 0001:00003940       _fftwf_guru_kosherp        10004940 f   FFTW3f:mktensor-iodims.obj
 0001:00003978       _fftwf_extract_reim        10004978 f   FFTW3f:extract-reim.obj
 0001:000039a8       _fftwf_taint               100049a8 f   FFTW3f:taint.obj
 0001:000039c8       _fftwf_join_taint          100049c8 f   FFTW3f:taint.obj
 0001:000039c8       _fftw_join_taint           100049c8 f   FFTW3f:taint.obj
 0001:000039d4       _fftwf_map_r2r_kind        100049d4 f   FFTW3f:map-r2r-kind.obj
 0001:00003a60       _fftwf_mktensor_rowmajor   10004a60 f   FFTW3f:mktensor-rowmajor.obj
 0001:00003b78       _fftwf_many_kosherp        10004b78 f   FFTW3f:mktensor-rowmajor.obj
 0001:00003ba0       _fftwf_mktensor_0d         10004ba0 f   FFTW3f:tensor1.obj
 0001:00003bac       _fftwf_mktensor_1d         10004bac f   FFTW3f:tensor1.obj
 0001:00003bcc       _fftwf_rdft2_pad           10004bcc f   FFTW3f:rdft2-pad.obj
 0001:00003c5c       _fftwf_mktensor            10004c5c f   FFTW3f:tensor.obj
 0001:00003c90       _fftwf_scanner_destroy     10004c90 f   FFTW3f:tensor.obj
 0001:00003c90       _fftwf_tensor_destroy      10004c90 f   FFTW3f:tensor.obj
 0001:00003c9c       _fftw_tensor_sz            10004c9c f   FFTW3f:tensor.obj
 0001:00003c9c       _fftwf_tensor_sz           10004c9c f   FFTW3f:tensor.obj
 0001:00003c9c       _fftwl_tensor_sz           10004c9c f   FFTW3f:tensor.obj
 0001:00003d1c       _fftwf_tensor_md5          10004d1c f   FFTW3f:tensor.obj
 0001:00003da0       _fftw_tensor_print         10004da0 f   FFTW3f:tensor.obj
 0001:00003da0       _fftwl_tensor_print        10004da0 f   FFTW3f:tensor.obj
 0001:00003da0       _fftwf_tensor_print        10004da0 f   FFTW3f:tensor.obj
 0001:00003e34       _fftwf_tensor_destroy2     10004e34 f   FFTW3f:tensor8.obj
 0001:00003e4c       _fftwf_tensor_destroy4     10004e4c f   FFTW3f:tensor8.obj
 0001:00003e6c       _fftwf_md5putb             10004e6c f   FFTW3f:md5-1.obj
 0001:00003eb8       _fftwf_md5puts             10004eb8 f   FFTW3f:md5-1.obj
 0001:00003edc       _fftwf_md5unsigned         10004edc f   FFTW3f:md5-1.obj
 0001:00003edc       _fftwf_md5ptrdiff          10004edc f   FFTW3f:md5-1.obj
 0001:00003edc       _fftwf_md5int              10004edc f   FFTW3f:md5-1.obj
 0001:00003ef0       _fftwf_tensor_copy         10004ef0 f   FFTW3f:tensor5.obj
 0001:00003f18       _fftwf_tensor_copy_inplace 10004f18 f   FFTW3f:tensor5.obj
 0001:00003f80       _fftwf_tensor_copy_except  10004f80 f   FFTW3f:tensor5.obj
 0001:00003fd0       _fftwf_tensor_copy_sub     10004fd0 f   FFTW3f:tensor5.obj
 0001:00004008       _fftwf_tensor_append       10005008 f   FFTW3f:tensor5.obj
 0001:0000426c       _fftwf_dft_zerotens        1000526c f   FFTW3f:zero.obj
 0001:00004288       _fftwf_tensor_compress     10005288 f   FFTW3f:tensor7.obj
 0001:00004340       _fftwf_tensor_compress_contiguous 10005340 f   FFTW3f:tensor7.obj
 0001:000044e0       _fftwf_tensor_split        100054e0 f   FFTW3f:tensor7.obj
 0001:00004514       _fftwf_mksolver            10005514 f   FFTW3f:solver.obj
 0001:0000452c       _fftwf_solver_use          1000552c f   FFTW3f:solver.obj
 0001:0000452c       _fftwl_solver_use          1000552c f   FFTW3f:solver.obj
 0001:0000452c       _fftw_solver_use           1000552c f   FFTW3f:solver.obj
 0001:00004538       _fftwf_solver_destroy      10005538 f   FFTW3f:solver.obj
 0001:00004550       _fftwl_hash                10005550 f   FFTW3f:hash.obj
 0001:00004550       _fftwf_hash                10005550 f   FFTW3f:hash.obj
 0001:00004550       _fftw_hash                 10005550 f   FFTW3f:hash.obj
 0001:000048bc       _fftwf_md5putc             100058bc f   FFTW3f:md5.obj
 0001:000048ec       _fftwf_md5end              100058ec f   FFTW3f:md5.obj
 0001:00004950       _fftwf_power_mod           10005950 f   FFTW3f:primes.obj
 0001:000049d0       _fftwf_find_generator      100059d0 f   FFTW3f:primes.obj
 0001:00004a5c       _fftwf_next_prime          10005a5c f   FFTW3f:primes.obj
 0001:00004a5c       _fftw_next_prime           10005a5c f   FFTW3f:primes.obj
 0001:00004a5c       _fftwl_next_prime          10005a5c f   FFTW3f:primes.obj
 0001:00004ae8       _fftwf_measure_execution_time 10005ae8 f   FFTW3f:timer.obj
 0001:00004bdc       _fftwf_dft_conf_standard   10005bdc f   FFTW3f:conf.obj
 0001:00004c14       _fftwf_rdft_conf_standard  10005c14 f   FFTW3f:conf.obj
 0001:00004c4c       _fftwf_reodft_conf_standard 10005c4c f   FFTW3f:conf.obj
 0001:00004f0c       _fftwf_dft_indirect_register 10005f0c f   FFTW3f:indirect.obj
 0001:0000524c       _fftwf_dft_rank0_register  1000624c f   FFTW3f:rank0.obj
 0001:0000551c       _fftwf_dft_rank_geq2_register 1000651c f   FFTW3f:rank-geq2.obj
 0001:0000588c       _fftwf_dft_vrank_geq1_register 1000688c f   FFTW3f:vrank-geq1.obj
 0001:00005c30       _fftwf_dft_vrank2_transpose_register 10006c30 f   FFTW3f:vrank2-transpose.obj
 0001:00006258       _fftwf_dft_vrank3_transpose_register 10007258 f   FFTW3f:vrank3-transpose.obj
 0001:000068dc       _fftwf_dft_buffered_register 100078dc f   FFTW3f:buffered.obj
 0001:00006d80       _fftwf_dft_generic_register 10007d80 f   FFTW3f:generic.obj
 0001:00007ae8       _fftwf_dft_rader_register  10008ae8 f   FFTW3f:rader.obj
 0001:00007bb8       _fftwf_dft_nop_register    10008bb8 f   FFTW3f:nop.obj
 0001:00007e50       _fftwf_rdft_indirect_register 10008e50 f   FFTW3f:indirect.obj
 0001:000080a4       _fftwf_rdft_rank0_register 100090a4 f   FFTW3f:rank0.obj
 0001:000083dc       _fftwf_rdft_vrank_geq1_register 100093dc f   FFTW3f:vrank-geq1.obj
 0001:000084b4       _fftwf_rdft_nop_register   100094b4 f   FFTW3f:nop.obj
 0001:000089d0       _fftwf_rdft_buffered_register 100099d0 f   FFTW3f:buffered.obj
 0001:00009b44       _fftwf_rdft_rader_hc2hc_register 1000ab44 f   FFTW3f:rader-hc2hc.obj
 0001:0000a740       _fftwf_rdft_generic_register 1000b740 f   FFTW3f:generic.obj
 0001:0000a9bc       _fftwf_rdft_rank_geq2_register 1000b9bc f   FFTW3f:rank-geq2.obj
 0001:0000ac90       _fftwf_dft_r2hc_register   1000bc90 f   FFTW3f:dft-r2hc.obj
 0001:0000b0a8       _fftwf_rdft_dht_register   1000c0a8 f   FFTW3f:rdft-dht.obj
 0001:0000b26c       _fftwf_dht_r2hc_register   1000c26c f   FFTW3f:dht-r2hc.obj
 0001:0000bd38       _fftwf_dht_rader_register  1000cd38 f   FFTW3f:dht-rader.obj
 0001:0000c0d8       _fftwf_rdft2_vrank_geq1_register 1000d0d8 f   FFTW3f:vrank-geq1-rdft2.obj
 0001:0000c1c8       _fftwf_rdft2_nop_register  1000d1c8 f   FFTW3f:nop2.obj
 0001:0000c64c       _fftwf_rdft2_rank0_register 1000d64c f   FFTW3f:rank0-rdft2.obj
 0001:0000d5dc       _fftwf_rdft2_buffered_register 1000e5dc f   FFTW3f:buffered2.obj
 0001:0000d930       _fftwf_rdft2_rank_geq2_register 1000e930 f   FFTW3f:rank-geq2-rdft2.obj
 0001:0000e388       _fftwf_rdft2_radix2_register 1000f388 f   FFTW3f:rdft2-radix2.obj
 0001:0000e800       _fftwf_redft00e_r2hc_pad_register 1000f800 f   FFTW3f:redft00e-r2hc-pad.obj
 0001:0000ecc0       _fftwf_rodft00e_r2hc_pad_register 1000fcc0 f   FFTW3f:rodft00e-r2hc-pad.obj
 0001:0000f908       _fftwf_reodft010e_r2hc_register 10010908 f   FFTW3f:reodft010e-r2hc.obj
 0001:0001044c       _fftwf_reodft11e_radix2_r2hc_register 1001144c f   FFTW3f:reodft11e-radix2.obj
 0001:000119b4       _fftwf_reodft11e_r2hc_odd_register 100129b4 f   FFTW3f:reodft11e-r2hc-odd.obj
 0001:000119c8       _fftw_tensor_inplace_strides 100129c8 f   FFTW3f:tensor4.obj
 0001:000119c8       _fftwl_tensor_inplace_strides 100129c8 f   FFTW3f:tensor4.obj
 0001:000119c8       _fftwf_tensor_inplace_strides 100129c8 f   FFTW3f:tensor4.obj
 0001:00011a50       _fftwf_tensor_inplace_strides2 10012a50 f   FFTW3f:tensor4.obj
 0001:00011a50       _fftw_tensor_inplace_strides2 10012a50 f   FFTW3f:tensor4.obj
 0001:00011a50       _fftwl_tensor_inplace_strides2 10012a50 f   FFTW3f:tensor4.obj
 0001:00011a78       _fftwf_mkplan_rdft2        10012a78 f   FFTW3f:plan.obj
 0001:00011a78       _fftwf_mkplan_rdft         10012a78 f   FFTW3f:plan.obj
 0001:00011a78       _fftwf_mkplan_dft          10012a78 f   FFTW3f:plan.obj
 0001:00011a90       _fftwf_pickdim             10012a90 f   FFTW3f:pickdim.obj
 0001:00011bfc       _fftwf_transposable        10012bfc f   FFTW3f:transpose.obj
 0001:00011c48       _fftwf_transpose_dims      10012c48 f   FFTW3f:transpose.obj
 0001:00011ca4       _fftwf_transpose_simplep   10012ca4 f   FFTW3f:transpose.obj
 0001:00011cf0       _fftwf_transpose_slowp     10012cf0 f   FFTW3f:transpose.obj
 0001:00012634       _fftwf_transpose           10013634 f   FFTW3f:transpose.obj
 0001:000127d4       _fftwf_transpose_slow      100137d4 f   FFTW3f:transpose.obj
 0001:00012b54       _fftwf_mktensor_2d         10013b54 f   FFTW3f:tensor2.obj
 0001:00012c68       _fftwf_twiddle_length      10013c68 f   FFTW3f:twiddle.obj
 0001:00012e1c       _fftwf_mktwiddle           10013e1c f   FFTW3f:twiddle.obj
 0001:00012ea4       _fftwf_twiddle_destroy     10013ea4 f   FFTW3f:twiddle.obj
 0001:00012efc       _fftwf_twiddle_awake       10013efc f   FFTW3f:twiddle.obj
 0001:00012f2c       _fftwf_rader_tl_insert     10013f2c f   FFTW3f:rader.obj
 0001:00012f64       _fftwf_rader_tl_delete     10013f64 f   FFTW3f:rader.obj
 0001:00012fc0       _fftwf_cos2pi              10013fc0 f   FFTW3f:trig.obj
 0001:00012fe8       _fftwf_sin2pi              10013fe8 f   FFTW3f:trig.obj
 0001:00013010       _fftwf_tan2pi              10014010 f   FFTW3f:trig.obj
 0001:00013018       _fftwf_dft_rader_mkomega   10014018 f   FFTW3f:rader-omega.obj
 0001:0001311c       _fftwf_dft_rader_free_omega 1001411c f   FFTW3f:rader-omega.obj
 0001:000131d0       _fftwf_codelet_n1fv_2      100141d0 f   FFTW3f:n1fv_2.obj
 0001:000132d8       _fftwf_codelet_n1fv_3      100142d8 f   FFTW3f:n1fv_3.obj
 0001:000133f8       _fftwf_codelet_n1fv_4      100143f8 f   FFTW3f:n1fv_4.obj
 0001:000135ac       _fftwf_codelet_n1fv_5      100145ac f   FFTW3f:n1fv_5.obj
 0001:00013780       _fftwf_codelet_n1fv_6      10014780 f   FFTW3f:n1fv_6.obj
 0001:00013a44       _fftwf_codelet_n1fv_7      10014a44 f   FFTW3f:n1fv_7.obj
 0001:00013c98       _fftwf_codelet_n1fv_8      10014c98 f   FFTW3f:n1fv_8.obj
 0001:00014058       _fftwf_codelet_n1fv_9      10015058 f   FFTW3f:n1fv_9.obj
 0001:000143f0       _fftwf_codelet_n1fv_10     100153f0 f   FFTW3f:n1fv_10.obj
 0001:000149c4       _fftwf_codelet_n1fv_11     100159c4 f   FFTW3f:n1fv_11.obj
 0001:00014d9c       _fftwf_codelet_n1fv_12     10015d9c f   FFTW3f:n1fv_12.obj
 0001:00015420       _fftwf_codelet_n1fv_13     10016420 f   FFTW3f:n1fv_13.obj
 0001:00015a20       _fftwf_codelet_n1fv_14     10016a20 f   FFTW3f:n1fv_14.obj
 0001:000160a0       _fftwf_codelet_n1fv_15     100170a0 f   FFTW3f:n1fv_15.obj
 0001:000165d4       _fftwf_codelet_n1fv_16     100175d4 f   FFTW3f:n1fv_16.obj
 0001:00016684       _fftwf_codelet_n1bv_2      10017684 f   FFTW3f:n1bv_2.obj
 0001:0001678c       _fftwf_codelet_n1bv_3      1001778c f   FFTW3f:n1bv_3.obj
 0001:000168ac       _fftwf_codelet_n1bv_4      100178ac f   FFTW3f:n1bv_4.obj
 0001:00016a60       _fftwf_codelet_n1bv_5      10017a60 f   FFTW3f:n1bv_5.obj
 0001:00016c30       _fftwf_codelet_n1bv_6      10017c30 f   FFTW3f:n1bv_6.obj
 0001:00016ef4       _fftwf_codelet_n1bv_7      10017ef4 f   FFTW3f:n1bv_7.obj
 0001:00017148       _fftwf_codelet_n1bv_8      10018148 f   FFTW3f:n1bv_8.obj
 0001:0001750c       _fftwf_codelet_n1bv_9      1001850c f   FFTW3f:n1bv_9.obj
 0001:000178a4       _fftwf_codelet_n1bv_10     100188a4 f   FFTW3f:n1bv_10.obj
 0001:00017e80       _fftwf_codelet_n1bv_11     10018e80 f   FFTW3f:n1bv_11.obj
 0001:0001824c       _fftwf_codelet_n1bv_12     1001924c f   FFTW3f:n1bv_12.obj
 0001:000188d4       _fftwf_codelet_n1bv_13     100198d4 f   FFTW3f:n1bv_13.obj
 0001:00018ed4       _fftwf_codelet_n1bv_14     10019ed4 f   FFTW3f:n1bv_14.obj
 0001:00019540       _fftwf_codelet_n1bv_15     1001a540 f   FFTW3f:n1bv_15.obj
 0001:00019a74       _fftwf_codelet_n1bv_16     1001aa74 f   FFTW3f:n1bv_16.obj
 0001:00019b08       _fftwf_codelet_n2fv_2      1001ab08 f   FFTW3f:n2fv_2.obj
 0001:00019be0       _fftwf_codelet_n2fv_3      1001abe0 f   FFTW3f:n2fv_3.obj
 0001:00019cc0       _fftwf_codelet_n2fv_4      1001acc0 f   FFTW3f:n2fv_4.obj
 0001:00019e18       _fftwf_codelet_n2fv_5      1001ae18 f   FFTW3f:n2fv_5.obj
 0001:00019f80       _fftwf_codelet_n2fv_6      1001af80 f   FFTW3f:n2fv_6.obj
 0001:0001a1c8       _fftwf_codelet_n2fv_7      1001b1c8 f   FFTW3f:n2fv_7.obj
 0001:0001a38c       _fftwf_codelet_n2fv_8      1001b38c f   FFTW3f:n2fv_8.obj
 0001:0001a6ac       _fftwf_codelet_n2fv_9      1001b6ac f   FFTW3f:n2fv_9.obj
 0001:0001a990       _fftwf_codelet_n2fv_10     1001b990 f   FFTW3f:n2fv_10.obj
 0001:0001ae9c       _fftwf_codelet_n2fv_11     1001be9c f   FFTW3f:n2fv_11.obj
 0001:0001b19c       _fftwf_codelet_n2fv_12     1001c19c f   FFTW3f:n2fv_12.obj
 0001:0001b72c       _fftwf_codelet_n2fv_13     1001c72c f   FFTW3f:n2fv_13.obj
 0001:0001bc30       _fftwf_codelet_n2fv_14     1001cc30 f   FFTW3f:n2fv_14.obj
 0001:0001c1a0       _fftwf_codelet_n2fv_15     1001d1a0 f   FFTW3f:n2fv_15.obj
 0001:0001c5b4       _fftwf_codelet_n2fv_16     1001d5b4 f   FFTW3f:n2fv_16.obj
 0001:0001c648       _fftwf_codelet_n2bv_2      1001d648 f   FFTW3f:n2bv_2.obj
 0001:0001c720       _fftwf_codelet_n2bv_3      1001d720 f   FFTW3f:n2bv_3.obj
 0001:0001c800       _fftwf_codelet_n2bv_4      1001d800 f   FFTW3f:n2bv_4.obj
 0001:0001c958       _fftwf_codelet_n2bv_5      1001d958 f   FFTW3f:n2bv_5.obj
 0001:0001cabc       _fftwf_codelet_n2bv_6      1001dabc f   FFTW3f:n2bv_6.obj
 0001:0001cd04       _fftwf_codelet_n2bv_7      1001dd04 f   FFTW3f:n2bv_7.obj
 0001:0001cec8       _fftwf_codelet_n2bv_8      1001dec8 f   FFTW3f:n2bv_8.obj
 0001:0001d1e8       _fftwf_codelet_n2bv_9      1001e1e8 f   FFTW3f:n2bv_9.obj
 0001:0001d4cc       _fftwf_codelet_n2bv_10     1001e4cc f   FFTW3f:n2bv_10.obj
 0001:0001d9e0       _fftwf_codelet_n2bv_11     1001e9e0 f   FFTW3f:n2bv_11.obj
 0001:0001dcd4       _fftwf_codelet_n2bv_12     1001ecd4 f   FFTW3f:n2bv_12.obj
 0001:0001e268       _fftwf_codelet_n2bv_13     1001f268 f   FFTW3f:n2bv_13.obj
 0001:0001e76c       _fftwf_codelet_n2bv_14     1001f76c f   FFTW3f:n2bv_14.obj
 0001:0001ecc8       _fftwf_codelet_n2bv_15     1001fcc8 f   FFTW3f:n2bv_15.obj
 0001:0001f0dc       _fftwf_codelet_n2bv_16     100200dc f   FFTW3f:n2bv_16.obj
 0001:0001f620       _fftwf_codelet_m1fv_16     10020620 f   FFTW3f:m1fv_16.obj
 0001:00020330       _fftwf_codelet_m1fv_32     10021330 f   FFTW3f:m1fv_32.obj
 0001:0002227c       _fftwf_codelet_m1fv_64     1002327c f   FFTW3f:m1fv_64.obj
 0001:000227bc       _fftwf_codelet_m1bv_16     100237bc f   FFTW3f:m1bv_16.obj
 0001:000234c8       _fftwf_codelet_m1bv_32     100244c8 f   FFTW3f:m1bv_32.obj
 0001:000253f8       _fftwf_codelet_m1bv_64     100263f8 f   FFTW3f:m1bv_64.obj
 0001:00025834       _fftwf_codelet_m2fv_16     10026834 f   FFTW3f:m2fv_16.obj
 0001:00026338       _fftwf_codelet_m2fv_32     10027338 f   FFTW3f:m2fv_32.obj
 0001:00027f4c       _fftwf_codelet_m2fv_64     10028f4c f   FFTW3f:m2fv_64.obj
 0001:00028384       _fftwf_codelet_m2bv_16     10029384 f   FFTW3f:m2bv_16.obj
 0001:00028e94       _fftwf_codelet_m2bv_32     10029e94 f   FFTW3f:m2bv_32.obj
 0001:0002aa98       _fftwf_codelet_m2bv_64     1002ba98 f   FFTW3f:m2bv_64.obj
 0001:0002ab34       _fftwf_codelet_t1fv_2      1002bb34 f   FFTW3f:t1fv_2.obj
 0001:0002ac38       _fftwf_codelet_t1fv_3      1002bc38 f   FFTW3f:t1fv_3.obj
 0001:0002ad58       _fftwf_codelet_t1fv_4      1002bd58 f   FFTW3f:t1fv_4.obj
 0001:0002af1c       _fftwf_codelet_t1fv_5      1002bf1c f   FFTW3f:t1fv_5.obj
 0001:0002b100       _fftwf_codelet_t1fv_6      1002c100 f   FFTW3f:t1fv_6.obj
 0001:0002b3ec       _fftwf_codelet_t1fv_7      1002c3ec f   FFTW3f:t1fv_7.obj
 0001:0002b668       _fftwf_codelet_t1fv_8      1002c668 f   FFTW3f:t1fv_8.obj
 0001:0002ba8c       _fftwf_codelet_t1fv_9      1002ca8c f   FFTW3f:t1fv_9.obj
 0001:0002be98       _fftwf_codelet_t1fv_10     1002ce98 f   FFTW3f:t1fv_10.obj
 0001:0002c2e0       _fftwf_codelet_t1fv_12     1002d2e0 f   FFTW3f:t1fv_12.obj
 0001:0002c9f4       _fftwf_codelet_t1fv_15     1002d9f4 f   FFTW3f:t1fv_15.obj
 0001:0002d004       _fftwf_codelet_t1fv_16     1002e004 f   FFTW3f:t1fv_16.obj
 0001:0002deac       _fftwf_codelet_t1fv_32     1002eeac f   FFTW3f:t1fv_32.obj
 0001:00030314       _fftwf_codelet_t1fv_64     10031314 f   FFTW3f:t1fv_64.obj
 0001:000303e0       _fftwf_codelet_t1bv_2      100313e0 f   FFTW3f:t1bv_2.obj
 0001:000304e4       _fftwf_codelet_t1bv_3      100314e4 f   FFTW3f:t1bv_3.obj
 0001:00030608       _fftwf_codelet_t1bv_4      10031608 f   FFTW3f:t1bv_4.obj
 0001:000307cc       _fftwf_codelet_t1bv_5      100317cc f   FFTW3f:t1bv_5.obj
 0001:000309b0       _fftwf_codelet_t1bv_6      100319b0 f   FFTW3f:t1bv_6.obj
 0001:00030c9c       _fftwf_codelet_t1bv_7      10031c9c f   FFTW3f:t1bv_7.obj
 0001:00030f18       _fftwf_codelet_t1bv_8      10031f18 f   FFTW3f:t1bv_8.obj
 0001:00031348       _fftwf_codelet_t1bv_9      10032348 f   FFTW3f:t1bv_9.obj
 0001:00031754       _fftwf_codelet_t1bv_10     10032754 f   FFTW3f:t1bv_10.obj
 0001:00031bac       _fftwf_codelet_t1bv_12     10032bac f   FFTW3f:t1bv_12.obj
 0001:000322bc       _fftwf_codelet_t1bv_15     100332bc f   FFTW3f:t1bv_15.obj
 0001:000328c8       _fftwf_codelet_t1bv_16     100338c8 f   FFTW3f:t1bv_16.obj
 0001:00033754       _fftwf_codelet_t1bv_32     10034754 f   FFTW3f:t1bv_32.obj
 0001:00035bb4       _fftwf_codelet_t1bv_64     10036bb4 f   FFTW3f:t1bv_64.obj
 0001:00035d24       _fftwf_codelet_q1fv_2      10036d24 f   FFTW3f:q1fv_2.obj
 0001:000362f0       _fftwf_codelet_q1fv_4      100372f0 f   FFTW3f:q1fv_4.obj
 0001:00037d6c       _fftwf_codelet_q1fv_8      10038d6c f   FFTW3f:q1fv_8.obj
 0001:00037eac       _fftwf_codelet_q1bv_2      10038eac f   FFTW3f:q1bv_2.obj
 0001:00038478       _fftwf_codelet_q1bv_4      10039478 f   FFTW3f:q1bv_4.obj
 0001:00039f10       _fftwf_codelet_q1bv_8      1003af10 f   FFTW3f:q1bv_8.obj
 0001:0003a070       _fftwf_codelet_q1_2        1003b070 f   FFTW3f:q1_2.obj
 0001:0003a6bc       _fftwf_codelet_q1_4        1003b6bc f   FFTW3f:q1_4.obj
 0001:0003c728       _fftwf_codelet_q1_8        1003d728 f   FFTW3f:q1_8.obj
 0001:0003caec       _fftwf_codelet_q1_3        1003daec f   FFTW3f:q1_3.obj
 0001:0003d800       _fftwf_codelet_q1_5        1003e800 f   FFTW3f:q1_5.obj
 0001:0003e978       _fftwf_codelet_q1_6        1003f978 f   FFTW3f:q1_6.obj
 0001:0003ea24       _fftwf_codelet_n1_2        1003fa24 f   FFTW3f:n1_2.obj
 0001:0003eb28       _fftwf_codelet_n1_3        1003fb28 f   FFTW3f:n1_3.obj
 0001:0003ec4c       _fftwf_codelet_n1_4        1003fc4c f   FFTW3f:n1_4.obj
 0001:0003ee68       _fftwf_codelet_n1_5        1003fe68 f   FFTW3f:n1_5.obj
 0001:0003f0ac       _fftwf_codelet_n1_6        100400ac f   FFTW3f:n1_6.obj
 0001:0003f440       _fftwf_codelet_n1_7        10040440 f   FFTW3f:n1_7.obj
 0001:0003f718       _fftwf_codelet_n1_8        10040718 f   FFTW3f:n1_8.obj
 0001:0003fbd4       _fftwf_codelet_n1_9        10040bd4 f   FFTW3f:n1_9.obj
 0001:00040088       _fftwf_codelet_n1_10       10041088 f   FFTW3f:n1_10.obj
 0001:00040820       _fftwf_codelet_n1_11       10041820 f   FFTW3f:n1_11.obj
 0001:00040cd8       _fftwf_codelet_n1_12       10041cd8 f   FFTW3f:n1_12.obj
 0001:000415d4       _fftwf_codelet_n1_13       100425d4 f   FFTW3f:n1_13.obj
 0001:00041d60       _fftwf_codelet_n1_14       10042d60 f   FFTW3f:n1_14.obj
 0001:0004262c       _fftwf_codelet_n1_15       1004362c f   FFTW3f:n1_15.obj
 0001:00042d80       _fftwf_codelet_n1_16       10043d80 f   FFTW3f:n1_16.obj
 0001:00043420       _fftwf_codelet_m1_16       10044420 f   FFTW3f:m1_16.obj
 0001:00044530       _fftwf_codelet_m1_32       10045530 f   FFTW3f:m1_32.obj
 0001:00047ad8       _fftwf_codelet_m1_64       10048ad8 f   FFTW3f:m1_64.obj
 0001:00047b88       _fftwf_codelet_t1_2        10048b88 f   FFTW3f:t1_2.obj
 0001:00047cc4       _fftwf_codelet_t1_3        10048cc4 f   FFTW3f:t1_3.obj
 0001:00047e64       _fftwf_codelet_t1_4        10048e64 f   FFTW3f:t1_4.obj
 0001:00048120       _fftwf_codelet_t1_5        10049120 f   FFTW3f:t1_5.obj
 0001:000483ec       _fftwf_codelet_t1_6        100493ec f   FFTW3f:t1_6.obj
 0001:00048834       _fftwf_codelet_t1_7        10049834 f   FFTW3f:t1_7.obj
 0001:00048bd0       _fftwf_codelet_t1_8        10049bd0 f   FFTW3f:t1_8.obj
 0001:00049174       _fftwf_codelet_t1_9        1004a174 f   FFTW3f:t1_9.obj
 0001:0004978c       _fftwf_codelet_t1_10       1004a78c f   FFTW3f:t1_10.obj
 0001:00049db8       _fftwf_codelet_t1_12       1004adb8 f   FFTW3f:t1_12.obj
 0001:0004a810       _fftwf_codelet_t1_15       1004b810 f   FFTW3f:t1_15.obj
 0001:0004b1cc       _fftwf_codelet_t1_16       1004c1cc f   FFTW3f:t1_16.obj
 0001:0004cc30       _fftwf_codelet_t1_32       1004dc30 f   FFTW3f:t1_32.obj
 0001:00050d0c       _fftwf_codelet_t1_64       10051d0c f   FFTW3f:t1_64.obj
 0001:00050ed4       _fftwf_codelet_t2_4        10051ed4 f   FFTW3f:t2_4.obj
 0001:00051380       _fftwf_codelet_t2_8        10052380 f   FFTW3f:t2_8.obj
 0001:00051f00       _fftwf_codelet_t2_16       10052f00 f   FFTW3f:t2_16.obj
 0001:00053eb0       _fftwf_codelet_t2_32       10054eb0 f   FFTW3f:t2_32.obj
 0001:000588ac       _fftwf_codelet_t2_64       100598ac f   FFTW3f:t2_64.obj
 0001:000588c4       _fftw_rdft_solve           100598c4 f   FFTW3f:solve.obj
 0001:000588c4       _fftwf_rdft_solve          100598c4 f   FFTW3f:solve.obj
 0001:000588e4       _fftwf_rdft2_inplace_strides 100598e4 f   FFTW3f:rdft2-inplace-strides.obj
 0001:00058a74       _fftwf_rdft2_tensor_max_index 10059a74 f   FFTW3f:rdft2-tensor-max-index.obj
 0001:00058a74       _fftw_rdft2_tensor_max_index 10059a74 f   FFTW3f:rdft2-tensor-max-index.obj
 0001:00058a74       _fftwl_rdft2_tensor_max_index 10059a74 f   FFTW3f:rdft2-tensor-max-index.obj
 0001:00058b48       _fftw_rdft2_strides        10059b48 f   FFTW3f:rdft2-strides.obj
 0001:00058b48       _fftwf_rdft2_strides       10059b48 f   FFTW3f:rdft2-strides.obj
 0001:00058b48       _fftwl_rdft2_strides       10059b48 f   FFTW3f:rdft2-strides.obj
 0001:00058d54       _fftwf_codelet_e01_8       10059d54 f   FFTW3f:e01_8.obj
 0001:00058f58       _fftwf_codelet_e10_8       10059f58 f   FFTW3f:e10_8.obj
 0001:00059004       _fftwf_codelet_hc2r_3      1005a004 f   FFTW3f:hc2r_3.obj
 0001:000590d0       _fftwf_codelet_hc2r_4      1005a0d0 f   FFTW3f:hc2r_4.obj
 0001:000591fc       _fftwf_codelet_hc2r_5      1005a1fc f   FFTW3f:hc2r_5.obj
 0001:00059318       _fftwf_codelet_hc2r_6      1005a318 f   FFTW3f:hc2r_6.obj
 0001:0005951c       _fftwf_codelet_hc2r_7      1005a51c f   FFTW3f:hc2r_7.obj
 0001:00059698       _fftwf_codelet_hc2r_8      1005a698 f   FFTW3f:hc2r_8.obj
 0001:000598c4       _fftwf_codelet_hc2r_9      1005a8c4 f   FFTW3f:hc2r_9.obj
 0001:00059afc       _fftwf_codelet_hc2r_10     1005aafc f   FFTW3f:hc2r_10.obj
 0001:00059f4c       _fftwf_codelet_hc2r_11     1005af4c f   FFTW3f:hc2r_11.obj
 0001:0005a19c       _fftwf_codelet_hc2r_12     1005b19c f   FFTW3f:hc2r_12.obj
 0001:0005a5f4       _fftwf_codelet_hc2r_13     1005b5f4 f   FFTW3f:hc2r_13.obj
 0001:0005a9bc       _fftwf_codelet_hc2r_14     1005b9bc f   FFTW3f:hc2r_14.obj
 0001:0005adcc       _fftwf_codelet_hc2r_15     1005bdcc f   FFTW3f:hc2r_15.obj
 0001:0005b128       _fftwf_codelet_hc2r_16     1005c128 f   FFTW3f:hc2r_16.obj
 0001:0005b924       _fftwf_codelet_hc2r_32     1005c924 f   FFTW3f:hc2r_32.obj
 0001:0005c114       _fftwf_codelet_mhc2r_32    1005d114 f   FFTW3f:mhc2r_32.obj
 0001:0005d7d4       _fftwf_codelet_mhc2r_64    1005e7d4 f   FFTW3f:mhc2r_64.obj
 0001:00061028       _fftwf_codelet_mhc2r_128   10062028 f   FFTW3f:mhc2r_128.obj
 0001:000610f8       _fftwf_codelet_hb_2        100620f8 f   FFTW3f:hb_2.obj
 0001:00061270       _fftwf_codelet_hb_3        10062270 f   FFTW3f:hb_3.obj
 0001:00061444       _fftwf_codelet_hb_4        10062444 f   FFTW3f:hb_4.obj
 0001:0006171c       _fftwf_codelet_hb_5        1006271c f   FFTW3f:hb_5.obj
 0001:00061a34       _fftwf_codelet_hb_6        10062a34 f   FFTW3f:hb_6.obj
 0001:00061f78       _fftwf_codelet_hb_7        10062f78 f   FFTW3f:hb_7.obj
 0001:000623a8       _fftwf_codelet_hb_8        100633a8 f   FFTW3f:hb_8.obj
 0001:00062a44       _fftwf_codelet_hb_9        10063a44 f   FFTW3f:hb_9.obj
 0001:000630e8       _fftwf_codelet_hb_10       100640e8 f   FFTW3f:hb_10.obj
 0001:00063790       _fftwf_codelet_hb_12       10064790 f   FFTW3f:hb_12.obj
 0001:000643f0       _fftwf_codelet_hb_15       100653f0 f   FFTW3f:hb_15.obj
 0001:00064d60       _fftwf_codelet_hb_16       10065d60 f   FFTW3f:hb_16.obj
 0001:00066a38       _fftwf_codelet_hb_32       10067a38 f   FFTW3f:hb_32.obj
 0001:0006aff4       _fftwf_codelet_hb_64       1006bff4 f   FFTW3f:hb_64.obj
 0001:0006b118       _fftwf_codelet_hc2rIII_2   1006c118 f   FFTW3f:hc2rIII_2.obj
 0001:0006b1bc       _fftwf_codelet_hc2rIII_3   1006c1bc f   FFTW3f:hc2rIII_3.obj
 0001:0006b28c       _fftwf_codelet_hc2rIII_4   1006c28c f   FFTW3f:hc2rIII_4.obj
 0001:0006b3b0       _fftwf_codelet_hc2rIII_5   1006c3b0 f   FFTW3f:hc2rIII_5.obj
 0001:0006b4d4       _fftwf_codelet_hc2rIII_6   1006c4d4 f   FFTW3f:hc2rIII_6.obj
 0001:0006b6e0       _fftwf_codelet_hc2rIII_7   1006c6e0 f   FFTW3f:hc2rIII_7.obj
 0001:0006b89c       _fftwf_codelet_hc2rIII_8   1006c89c f   FFTW3f:hc2rIII_8.obj
 0001:0006bad0       _fftwf_codelet_hc2rIII_9   1006cad0 f   FFTW3f:hc2rIII_9.obj
 0001:0006bd0c       _fftwf_codelet_hc2rIII_10  1006cd0c f   FFTW3f:hc2rIII_10.obj
 0001:0006bfbc       _fftwf_codelet_hc2rIII_12  1006cfbc f   FFTW3f:hc2rIII_12.obj
 0001:0006c37c       _fftwf_codelet_hc2rIII_15  1006d37c f   FFTW3f:hc2rIII_15.obj
 0001:0006c77c       _fftwf_codelet_hc2rIII_16  1006d77c f   FFTW3f:hc2rIII_16.obj
 0001:0006d0e8       _fftwf_codelet_hc2rIII_32  1006e0e8 f   FFTW3f:hc2rIII_32.obj
 0001:0006da44       _fftwf_codelet_mhc2rIII_32 1006ea44 f   FFTW3f:mhc2rIII_32.obj
 0001:0006f4dc       _fftwf_codelet_mhc2rIII_64 100704dc f   FFTW3f:mhc2rIII_64.obj
 0001:0006f560       _fftwf_codelet_r2hc_2      10070560 f   FFTW3f:r2hc_2.obj
 0001:0006f610       _fftwf_codelet_r2hc_3      10070610 f   FFTW3f:r2hc_3.obj
 0001:0006f6cc       _fftwf_codelet_r2hc_4      100706cc f   FFTW3f:r2hc_4.obj
 0001:0006f7e0       _fftwf_codelet_r2hc_5      100707e0 f   FFTW3f:r2hc_5.obj
 0001:0006f8f4       _fftwf_codelet_r2hc_6      100708f4 f   FFTW3f:r2hc_6.obj
 0001:0006fab0       _fftwf_codelet_r2hc_7      10070ab0 f   FFTW3f:r2hc_7.obj
 0001:0006fc00       _fftwf_codelet_r2hc_8      10070c00 f   FFTW3f:r2hc_8.obj
 0001:0006feb0       _fftwf_codelet_r2hc_9      10070eb0 f   FFTW3f:r2hc_9.obj
 0001:000700e8       _fftwf_codelet_r2hc_10     100710e8 f   FFTW3f:r2hc_10.obj
 0001:000704ac       _fftwf_codelet_r2hc_11     100714ac f   FFTW3f:r2hc_11.obj
 0001:000706f4       _fftwf_codelet_r2hc_12     100716f4 f   FFTW3f:r2hc_12.obj
 0001:00070b4c       _fftwf_codelet_r2hc_13     10071b4c f   FFTW3f:r2hc_13.obj
 0001:00070f20       _fftwf_codelet_r2hc_14     10071f20 f   FFTW3f:r2hc_14.obj
 0001:00071304       _fftwf_codelet_r2hc_15     10072304 f   FFTW3f:r2hc_15.obj
 0001:00071664       _fftwf_codelet_r2hc_16     10072664 f   FFTW3f:r2hc_16.obj
 0001:00071e6c       _fftwf_codelet_r2hc_32     10072e6c f   FFTW3f:r2hc_32.obj
 0001:000725d4       _fftwf_codelet_mr2hc_32    100735d4 f   FFTW3f:mr2hc_32.obj
 0001:00073994       _fftwf_codelet_mr2hc_64    10074994 f   FFTW3f:mr2hc_64.obj
 0001:00077424       _fftwf_codelet_mr2hc_128   10078424 f   FFTW3f:mr2hc_128.obj
 0001:000774f4       _fftwf_codelet_hf_2        100784f4 f   FFTW3f:hf_2.obj
 0001:00077654       _fftwf_codelet_hf_3        10078654 f   FFTW3f:hf_3.obj
 0001:00077804       _fftwf_codelet_hf_4        10078804 f   FFTW3f:hf_4.obj
 0001:00077af8       _fftwf_codelet_hf_5        10078af8 f   FFTW3f:hf_5.obj
 0001:00077e10       _fftwf_codelet_hf_6        10078e10 f   FFTW3f:hf_6.obj
 0001:000782bc       _fftwf_codelet_hf_7        100792bc f   FFTW3f:hf_7.obj
 0001:000786c4       _fftwf_codelet_hf_8        100796c4 f   FFTW3f:hf_8.obj
 0001:00078d00       _fftwf_codelet_hf_9        10079d00 f   FFTW3f:hf_9.obj
 0001:000793f0       _fftwf_codelet_hf_10       1007a3f0 f   FFTW3f:hf_10.obj
 0001:00079b0c       _fftwf_codelet_hf_12       1007ab0c f   FFTW3f:hf_12.obj
 0001:0007a67c       _fftwf_codelet_hf_15       1007b67c f   FFTW3f:hf_15.obj
 0001:0007b178       _fftwf_codelet_hf_16       1007c178 f   FFTW3f:hf_16.obj
 0001:0007ce60       _fftwf_codelet_hf_32       1007de60 f   FFTW3f:hf_32.obj
 0001:00080d84       _fftwf_codelet_hf_64       10081d84 f   FFTW3f:hf_64.obj
 0001:00080f64       _fftwf_codelet_hf2_4       10081f64 f   FFTW3f:hf2_4.obj
 0001:00081478       _fftwf_codelet_hf2_8       10082478 f   FFTW3f:hf2_8.obj
 0001:00082340       _fftwf_codelet_hf2_16      10083340 f   FFTW3f:hf2_16.obj
 0001:000844d0       _fftwf_codelet_hf2_32      100854d0 f   FFTW3f:hf2_32.obj
 0001:00089e50       _fftwf_codelet_hf2_64      1008ae50 f   FFTW3f:hf2_64.obj
 0001:00089f44       _fftwf_codelet_r2hcII_2    1008af44 f   FFTW3f:r2hcII_2.obj
 0001:00089fe8       _fftwf_codelet_r2hcII_3    1008afe8 f   FFTW3f:r2hcII_3.obj
 0001:0008a0ac       _fftwf_codelet_r2hcII_4    1008b0ac f   FFTW3f:r2hcII_4.obj
 0001:0008a1b8       _fftwf_codelet_r2hcII_5    1008b1b8 f   FFTW3f:r2hcII_5.obj
 0001:0008a2d8       _fftwf_codelet_r2hcII_6    1008b2d8 f   FFTW3f:r2hcII_6.obj
 0001:0008a490       _fftwf_codelet_r2hcII_7    1008b490 f   FFTW3f:r2hcII_7.obj
 0001:0008a638       _fftwf_codelet_r2hcII_8    1008b638 f   FFTW3f:r2hcII_8.obj
 0001:0008a914       _fftwf_codelet_r2hcII_9    1008b914 f   FFTW3f:r2hcII_9.obj
 0001:0008ab3c       _fftwf_codelet_r2hcII_10   1008bb3c f   FFTW3f:r2hcII_10.obj
 0001:0008adc8       _fftwf_codelet_r2hcII_12   1008bdc8 f   FFTW3f:r2hcII_12.obj
 0001:0008b1ec       _fftwf_codelet_r2hcII_15   1008c1ec f   FFTW3f:r2hcII_15.obj
 0001:0008b5d0       _fftwf_codelet_r2hcII_16   1008c5d0 f   FFTW3f:r2hcII_16.obj
 0001:0008c02c       _fftwf_codelet_r2hcII_32   1008d02c f   FFTW3f:r2hcII_32.obj
 0001:0008ca7c       _fftwf_codelet_mr2hcII_32  1008da7c f   FFTW3f:mr2hcII_32.obj
 0001:0008e59c       _fftwf_codelet_mr2hcII_64  1008f59c f   FFTW3f:mr2hcII_64.obj
 0001:0008e5b4       _fftwf_sincos              1008f5b4 f   FFTW3f:trig1.obj
 0001:0008e758       _fftwf_kdft_register       1008f758 f   FFTW3f:kdft.obj
 0001:0008eac0       _fftwf_kdft_dit_register   1008fac0 f   FFTW3f:kdft-dit.obj
 0001:0008ec44       _fftwf_kdft_difsq_register 1008fc44 f   FFTW3f:kdft-difsq.obj
 0001:0008ed0c       _fftwf_kr2r_register       1008fd0c f   FFTW3f:kr2r.obj
 0001:0008ed28       _fftwf_khc2r_register      1008fd28 f   FFTW3f:khc2r.obj
 0001:0008ed90       _fftwf_khc2hc_dif_register 1008fd90 f   FFTW3f:khc2hc-dif.obj
 0001:0008edd4       _fftwf_kr2hc_register      1008fdd4 f   FFTW3f:kr2hc.obj
 0001:0008ee08       _fftwf_khc2hc_dit_register 1008fe08 f   FFTW3f:khc2hc-dit.obj
 0001:0008eec0       _fftwf_have_sse            1008fec0 f   FFTW3f:sse.obj
 0001:0008f120       _fftwf_mksolver_dft_direct 10090120 f   FFTW3f:direct.obj
 0001:0008f39c       _fftwf_mksolver_dft_ct_dit 1009039c f   FFTW3f:ct-dit.obj
 0001:0008f874       _fftwf_mksolver_dft_ct_ditbuf 10090874 f   FFTW3f:ct-ditbuf.obj
 0001:0008fa08       _fftwf_mksolver_dft_ct_ditf 10090a08 f   FFTW3f:ct-ditf.obj
 0001:0008fec4       _fftwf_mksolver_rdft_r2hc_direct 10090ec4 f   FFTW3f:direct.obj
 0001:0008fef8       _fftwf_mksolver_rdft_hc2r_direct 10090ef8 f   FFTW3f:direct.obj
 0001:0008ff2c       _fftwf_mksolver_rdft_r2r_direct 10090f2c f   FFTW3f:direct.obj
 0001:000902f8       _fftwf_mksolver_rdft2_r2hc_direct 100912f8 f   FFTW3f:direct2.obj
 0001:0009032c       _fftwf_mksolver_rdft2_hc2r_direct 1009132c f   FFTW3f:direct2.obj
 0001:0009069c       _fftwf_mksolver_rdft_hc2hc_dif 1009169c f   FFTW3f:hc2hc-dif.obj
 0001:00090ee0       _fftwf_mksolver_rdft_hc2hc_ditbuf 10091ee0 f   FFTW3f:hc2hc-buf.obj
 0001:00090f18       _fftwf_mksolver_rdft_hc2hc_difbuf 10091f18 f   FFTW3f:hc2hc-buf.obj
 0001:00091268       _fftwf_mksolver_rdft_hc2hc_dit 10092268 f   FFTW3f:hc2hc-dit.obj
 0001:00091284       _fftwf_mkstride            10092284 f   FFTW3f:stride.obj
 0001:000913a4       _fftwf_stride_destroy      100923a4 f   FFTW3f:stride.obj
 0001:0009144c       _fftwf_dft_ct_applicable   1009244c f   FFTW3f:ct.obj
 0001:00091494       _fftwf_mkplan_dft_ct       10092494 f   FFTW3f:ct.obj
 0001:00091564       _fftwf_mksolver_rdft_hc2hc 10092564 f   FFTW3f:ct.obj
 0001:00091564       _fftwf_mksolver_dft_ct     10092564 f   FFTW3f:ct.obj
 0001:00091588       _fftwf_dft_mkcld_dit       10092588 f   FFTW3f:ct.obj
 0001:00091604       _fftw_ct_uglyp             10092604 f   FFTW3f:ct.obj
 0001:00091604       _fftwl_ct_uglyp            10092604 f   FFTW3f:ct.obj
 0001:00091604       _fftwf_ct_uglyp            10092604 f   FFTW3f:ct.obj
 0001:0009172c       _fftwf_rdft_hc2hc_applicable 1009272c f   FFTW3f:hc2hc.obj
 0001:00091784       _fftwf_mkplan_rdft_hc2hc   10092784 f   FFTW3f:hc2hc.obj
 0001:0009192c       _fftwf_rdft_mkcldrn_dit    1009292c f   FFTW3f:hc2hc.obj
 0001:00091a24       _fftwf_rdft_mkcldrn_dif    10092a24 f   FFTW3f:hc2hc.obj
 0001:00091b1c       _fftw_the_planner          10092b1c f   FFTW3d:the-planner.obj
 0001:00091b40       _fftw_cleanup              10092b40 f   FFTW3d:the-planner.obj
 0001:00091b5c       _fftw_mkapiplan            10092b5c f   FFTW3d:apiplan.obj
 0001:00091c1c       _fftw_destroy_plan         10092c1c f   FFTW3d:apiplan.obj
 0001:00091c48       _fftwl_execute_dft         10092c48 f   FFTW3d:execute-dft.obj
 0001:00091c48       _fftw_execute_dft          10092c48 f   FFTW3d:execute-dft.obj
 0001:00091ca4       _fftwl_execute_split_dft_c2r 10092ca4 f   FFTW3d:execute-split-dft-c2r.obj
 0001:00091ca4       _fftwf_execute_split_dft_c2r 10092ca4 f   FFTW3d:execute-split-dft-c2r.obj
 0001:00091ca4       _fftw_execute_split_dft_c2r 10092ca4 f   FFTW3d:execute-split-dft-c2r.obj
 0001:00091cd0       _fftw_execute_split_dft_r2c 10092cd0 f   FFTW3d:execute-split-dft-r2c.obj
 0001:00091cd0       _fftwf_execute_split_dft_r2c 10092cd0 f   FFTW3d:execute-split-dft-r2c.obj
 0001:00091cd0       _fftwl_execute_split_dft_r2c 10092cd0 f   FFTW3d:execute-split-dft-r2c.obj
 0001:00091cfc       _fftw_export_wisdom        10092cfc f   FFTW3d:export-wisdom.obj
 0001:00091d38       _fftw_export_wisdom_to_file 10092d38 f   FFTW3d:export-wisdom-to-file.obj
 0001:00091d9c       _fftw_export_wisdom_to_string 10092d9c f   FFTW3d:export-wisdom-to-string.obj
 0001:00091df4       _fftw_forget_wisdom        10092df4 f   FFTW3d:forget-wisdom.obj
 0001:00091e08       _fftw_fprint_plan          10092e08 f   FFTW3d:print-plan.obj
 0001:00091e2c       _fftw_print_plan           10092e2c f   FFTW3d:print-plan.obj
 0001:00091e64       _fftw_malloc               10092e64 f   FFTW3d:alloc.obj
 0001:00091e70       _fftw_free                 10092e70 f   FFTW3d:alloc.obj
 0001:00091e7c       _fftw_malloc_plain         10092e7c f   FFTW3d:alloc.obj
 0001:00091eb4       _fftw_ifree                10092eb4 f   FFTW3d:alloc.obj
 0001:00091ec0       _fftw_ifree0               10092ec0 f   FFTW3d:alloc.obj
 0001:00091ed0       _fftw_import_wisdom        10092ed0 f   FFTW3d:import-wisdom.obj
 0001:00091f94       _fftw_import_wisdom_from_file 10092f94 f   FFTW3d:import-wisdom-from-file.obj
 0001:00091fd8       _fftw_import_wisdom_from_string 10092fd8 f   FFTW3d:import-wisdom-from-string.obj
 0001:00092044       _fftw_mkprinter_file       10093044 f   FFTW3d:mkprinter-file.obj
 0001:0009206c       _fftw_mkplan               1009306c f   FFTW3d:plan.obj
 0001:000920a0       _fftw_plan_destroy_internal 100930a0 f   FFTW3d:plan.obj
 0001:000920cc       _fftwf_null_awake          100930cc f   FFTW3d:plan.obj
 0001:000920cc       _fftwl_null_awake          100930cc f   FFTW3d:plan.obj
 0001:000920cc       _fftw_null_awake           100930cc f   FFTW3d:plan.obj
 0001:000920cc       _fftwf_plan_null_destroy   100930cc f   FFTW3d:plan.obj
 0001:000920cc       _fftw_plan_null_destroy    100930cc f   FFTW3d:plan.obj
 0001:000920cc       _fftwl_plan_null_destroy   100930cc f   FFTW3d:plan.obj
 0001:000920d0       _fftw_plan_dft             100930d0 f   FFTW3d:plan-dft.obj
 0001:00092100       _fftw_plan_dft_1d          10093100 f   FFTW3d:plan-dft-1d.obj
 0001:00092120       _fftw_plan_dft_2d          10093120 f   FFTW3d:plan-dft-2d.obj
 0001:00092154       _fftw_plan_dft_3d          10093154 f   FFTW3d:plan-dft-3d.obj
 0001:00092190       _fftw_plan_dft_c2r         10093190 f   FFTW3d:plan-dft-c2r.obj
 0001:000921bc       _fftw_plan_dft_c2r_1d      100931bc f   FFTW3d:plan-dft-c2r-1d.obj
 0001:000921d8       _fftw_plan_dft_c2r_2d      100931d8 f   FFTW3d:plan-dft-c2r-2d.obj
 0001:00092208       _fftw_plan_dft_c2r_3d      10093208 f   FFTW3d:plan-dft-c2r-3d.obj
 0001:00092240       _fftw_plan_dft_r2c         10093240 f   FFTW3d:plan-dft-r2c.obj
 0001:0009226c       _fftw_plan_dft_r2c_1d      1009326c f   FFTW3d:plan-dft-r2c-1d.obj
 0001:00092288       _fftw_plan_dft_r2c_2d      10093288 f   FFTW3d:plan-dft-r2c-2d.obj
 0001:000922b8       _fftw_plan_dft_r2c_3d      100932b8 f   FFTW3d:plan-dft-r2c-3d.obj
 0001:000922f0       _fftw_plan_guru_dft        100932f0 f   FFTW3d:plan-guru-dft.obj
 0001:000923e8       _fftw_plan_guru_dft_c2r    100933e8 f   FFTW3d:plan-guru-dft-c2r.obj
 0001:000924c0       _fftw_plan_guru_dft_r2c    100934c0 f   FFTW3d:plan-guru-dft-r2c.obj
 0001:00092584       _fftw_plan_guru_r2r        10093584 f   FFTW3d:plan-guru-r2r.obj
 0001:0009263c       _fftw_plan_guru_split_dft  1009363c f   FFTW3d:plan-guru-split-dft.obj
 0001:00092728       _fftw_plan_guru_split_dft_c2r 10093728 f   FFTW3d:plan-guru-split-dft-c2r.obj
 0001:000927f4       _fftw_plan_guru_split_dft_r2c 100937f4 f   FFTW3d:plan-guru-split-dft-r2c.obj
 0001:000928a4       _fftw_plan_many_dft        100938a4 f   FFTW3d:plan-many-dft.obj
 0001:000929d4       _fftw_plan_many_dft_c2r    100939d4 f   FFTW3d:plan-many-dft-c2r.obj
 0001:00092b20       _fftw_plan_many_dft_r2c    10093b20 f   FFTW3d:plan-many-dft-r2c.obj
 0001:00092c5c       _fftw_plan_many_r2r        10093c5c f   FFTW3d:plan-many-r2r.obj
 0001:00092d44       _fftw_plan_r2r             10093d44 f   FFTW3d:plan-r2r.obj
 0001:00092d74       _fftw_plan_r2r_1d          10093d74 f   FFTW3d:plan-r2r-1d.obj
 0001:00092d98       _fftw_plan_r2r_2d          10093d98 f   FFTW3d:plan-r2r-2d.obj
 0001:00092ddc       _fftw_plan_r2r_3d          10093ddc f   FFTW3d:plan-r2r-3d.obj
 0001:0009317c       _fftw_mkprinter            1009417c f   FFTW3d:print.obj
 0001:000931b0       _fftw_printer_destroy      100941b0 f   FFTW3d:print.obj
 0001:000932f8       _fftw_problem_dft_p        100942f8 f   FFTW3d:problem.obj
 0001:0009330c       _fftw_mkproblem_dft        1009430c f   FFTW3d:problem.obj
 0001:000933a8       _fftw_mkproblem_dft_d      100943a8 f   FFTW3d:problem.obj
 0001:00093544       _fftw_problem_rdft2_p      10094544 f   FFTW3d:problem2.obj
 0001:00093558       _fftw_mkproblem_rdft2      10094558 f   FFTW3d:problem2.obj
 0001:00093688       _fftw_mkproblem_rdft2_d    10094688 f   FFTW3d:problem2.obj
 0001:000938fc       _fftw_rdft_zerotens        100948fc f   FFTW3d:problem.obj
 0001:00093914       _fftw_rdft_kind_str        10094914 f   FFTW3d:problem.obj
 0001:000939c0       _fftw_problem_rdft_p       100949c0 f   FFTW3d:problem.obj
 0001:000939d4       _fftw_mkproblem_rdft       100949d4 f   FFTW3d:problem.obj
 0001:00093cc0       _fftw_mkproblem_rdft_d     10094cc0 f   FFTW3d:problem.obj
 0001:00093cf0       _fftw_mkproblem_rdft_1     10094cf0 f   FFTW3d:problem.obj
 0001:00093d10       _fftw_mkproblem_rdft_1_d   10094d10 f   FFTW3d:problem.obj
 0001:000948f8       _fftw_mkplanner            100958f8 f   FFTW3d:planner.obj
 0001:00094964       _fftw_planner_destroy      10095964 f   FFTW3d:planner.obj
 0001:000949c4       _fftw_configure_planner    100959c4 f   FFTW3d:configure.obj
 0001:000949e0       _fftw_mapflags             100959e0 f   FFTW3d:mapflags.obj
 0001:00094ba4       _fftw_mkproblem            10095ba4 f   FFTW3d:problem.obj
 0001:00094bb8       _fftw_problem_destroy      10095bb8 f   FFTW3d:problem.obj
 0001:00094bb8       _fftwl_problem_destroy     10095bb8 f   FFTW3d:problem.obj
 0001:00094bb8       _fftwf_problem_destroy     10095bb8 f   FFTW3d:problem.obj
 0001:00094ee8       _fftw_mkscanner            10095ee8 f   FFTW3d:scan.obj
 0001:00094f10       _fftw_scanner_destroy      10095f10 f   FFTW3d:scan.obj
 0001:00094f10       _fftw_tensor_destroy       10095f10 f   FFTW3d:scan.obj
 0001:00094f1c       _fftw_ops_zero             10095f1c f   FFTW3d:ops.obj
 0001:00094f34       _fftw_ops_other            10095f34 f   FFTW3d:ops.obj
 0001:00094f58       _fftw_mktensor_iodims      10095f58 f   FFTW3d:mktensor-iodims.obj
 0001:00095050       _fftw_guru_kosherp         10096050 f   FFTW3d:mktensor-iodims.obj
 0001:00095088       _fftw_extract_reim         10096088 f   FFTW3d:extract-reim.obj
 0001:00095088       _fftwl_extract_reim        10096088 f   FFTW3d:extract-reim.obj
 0001:000950b8       _fftw_taint                100960b8 f   FFTW3d:taint.obj
 0001:000950dc       _fftw_map_r2r_kind         100960dc f   FFTW3d:map-r2r-kind.obj
 0001:00095168       _fftw_mktensor_rowmajor    10096168 f   FFTW3d:mktensor-rowmajor.obj
 0001:00095214       _fftw_many_kosherp         10096214 f   FFTW3d:mktensor-rowmajor.obj
 0001:0009523c       _fftw_mktensor_0d          1009623c f   FFTW3d:tensor1.obj
 0001:00095248       _fftw_mktensor_1d          10096248 f   FFTW3d:tensor1.obj
 0001:00095268       _fftw_rdft2_pad            10096268 f   FFTW3d:rdft2-pad.obj
 0001:000952f8       _fftw_mktensor             100962f8 f   FFTW3d:tensor.obj
 0001:0009532c       _fftw_tensor_md5           1009632c f   FFTW3d:tensor.obj
 0001:000953b0       _fftw_tensor_destroy2      100963b0 f   FFTW3d:tensor8.obj
 0001:000953c8       _fftw_tensor_destroy4      100963c8 f   FFTW3d:tensor8.obj
 0001:000953e8       _fftw_md5putb              100963e8 f   FFTW3d:md5-1.obj
 0001:00095434       _fftw_md5puts              10096434 f   FFTW3d:md5-1.obj
 0001:00095458       _fftw_md5int               10096458 f   FFTW3d:md5-1.obj
 0001:00095458       _fftw_md5ptrdiff           10096458 f   FFTW3d:md5-1.obj
 0001:00095458       _fftw_md5unsigned          10096458 f   FFTW3d:md5-1.obj
 0001:0009546c       _fftwf_alignment_of        1009646c f   FFTW3d:align.obj
 0001:0009546c       _fftw_alignment_of         1009646c f   FFTW3d:align.obj
 0001:00095474       _fftw_tensor_copy          10096474 f   FFTW3d:tensor5.obj
 0001:0009549c       _fftw_tensor_copy_inplace  1009649c f   FFTW3d:tensor5.obj
 0001:00095504       _fftw_tensor_copy_except   10096504 f   FFTW3d:tensor5.obj
 0001:00095554       _fftw_tensor_copy_sub      10096554 f   FFTW3d:tensor5.obj
 0001:0009558c       _fftw_tensor_append        1009658c f   FFTW3d:tensor5.obj
 0001:00095818       _fftw_dft_zerotens         10096818 f   FFTW3d:zero.obj
 0001:00095834       _fftwf_dimcmp              10096834 f   FFTW3d:tensor7.obj
 0001:00095834       _fftwl_dimcmp              10096834 f   FFTW3d:tensor7.obj
 0001:00095834       _fftw_dimcmp               10096834 f   FFTW3d:tensor7.obj
 0001:00095864       _fftw_tensor_compress      10096864 f   FFTW3d:tensor7.obj
 0001:0009594c       _fftw_tensor_compress_contiguous 1009694c f   FFTW3d:tensor7.obj
 0001:00095aec       _fftw_tensor_split         10096aec f   FFTW3d:tensor7.obj
 0001:00095b20       _fftw_mksolver             10096b20 f   FFTW3d:solver.obj
 0001:00095b38       _fftw_solver_destroy       10096b38 f   FFTW3d:solver.obj
 0001:00095b50       _fftwl_solver_register     10096b50 f   FFTW3d:solver.obj
 0001:00095b50       _fftw_solver_register      10096b50 f   FFTW3d:solver.obj
 0001:00095b50       _fftwf_solver_register     10096b50 f   FFTW3d:solver.obj
 0001:00095ea4       _fftwl_md5begin            10096ea4 f   FFTW3d:md5.obj
 0001:00095ea4       _fftw_md5begin             10096ea4 f   FFTW3d:md5.obj
 0001:00095ea4       _fftwf_md5begin            10096ea4 f   FFTW3d:md5.obj
 0001:00095ecc       _fftw_md5putc              10096ecc f   FFTW3d:md5.obj
 0001:00095efc       _fftw_md5end               10096efc f   FFTW3d:md5.obj
 0001:00095f60       _fftw_power_mod            10096f60 f   FFTW3d:primes.obj
 0001:00096074       _fftw_find_generator       10097074 f   FFTW3d:primes.obj
 0001:00096100       _fftwl_first_divisor       10097100 f   FFTW3d:primes.obj
 0001:00096100       _fftwf_first_divisor       10097100 f   FFTW3d:primes.obj
 0001:00096100       _fftw_first_divisor        10097100 f   FFTW3d:primes.obj
 0001:0009614c       _fftwl_is_prime            1009714c f   FFTW3d:primes.obj
 0001:0009614c       _fftwf_is_prime            1009714c f   FFTW3d:primes.obj
 0001:0009614c       _fftw_is_prime             1009714c f   FFTW3d:primes.obj
 0001:000961d8       _fftw_measure_execution_time 100971d8 f   FFTW3d:timer.obj
 0001:000962b4       _fftw_dft_conf_standard    100972b4 f   FFTW3d:conf.obj
 0001:000962ec       _fftw_rdft_conf_standard   100972ec f   FFTW3d:conf.obj
 0001:00096324       _fftw_reodft_conf_standard 10097324 f   FFTW3d:conf.obj
 0001:000965c0       _fftw_dft_indirect_register 100975c0 f   FFTW3d:indirect.obj
 0001:000968b0       _fftw_dft_rank0_register   100978b0 f   FFTW3d:rank0.obj
 0001:00096b4c       _fftw_dft_rank_geq2_register 10097b4c f   FFTW3d:rank-geq2.obj
 0001:00096df8       _fftw_dft_vrank_geq1_register 10097df8 f   FFTW3d:vrank-geq1.obj
 0001:000970b4       _fftw_dft_vrank2_transpose_register 100980b4 f   FFTW3d:vrank2-transpose.obj
 0001:000976dc       _fftw_dft_vrank3_transpose_register 100986dc f   FFTW3d:vrank3-transpose.obj
 0001:00097d74       _fftw_dft_buffered_register 10098d74 f   FFTW3d:buffered.obj
 0001:00098270       _fftw_dft_generic_register 10099270 f   FFTW3d:generic.obj
 0001:00099098       _fftw_dft_rader_register   1009a098 f   FFTW3d:rader.obj
 0001:00099178       _fftw_dft_nop_register     1009a178 f   FFTW3d:nop.obj
 0001:0009918c       _fftwl_solvtab_exec        1009a18c f   FFTW3d:solvtab.obj
 0001:0009918c       _fftwf_solvtab_exec        1009a18c f   FFTW3d:solvtab.obj
 0001:0009918c       _fftw_solvtab_exec         1009a18c f   FFTW3d:solvtab.obj
 0001:0009945c       _fftw_rdft_indirect_register 1009a45c f   FFTW3d:indirect.obj
 0001:00099680       _fftw_rdft_rank0_register  1009a680 f   FFTW3d:rank0.obj
 0001:00099920       _fftw_rdft_vrank_geq1_register 1009a920 f   FFTW3d:vrank-geq1.obj
 0001:00099a08       _fftw_rdft_nop_register    1009aa08 f   FFTW3d:nop.obj
 0001:00099f50       _fftw_rdft_buffered_register 1009af50 f   FFTW3d:buffered.obj
 0001:0009b1c8       _fftw_rdft_rader_hc2hc_register 1009c1c8 f   FFTW3d:rader-hc2hc.obj
 0001:0009bf30       _fftw_rdft_generic_register 1009cf30 f   FFTW3d:generic.obj
 0001:0009c1b4       _fftw_rdft_rank_geq2_register 1009d1b4 f   FFTW3d:rank-geq2.obj
 0001:0009c3e4       _fftw_dft_r2hc_register    1009d3e4 f   FFTW3d:dft-r2hc.obj
 0001:0009c82c       _fftw_rdft_dht_register    1009d82c f   FFTW3d:rdft-dht.obj
 0001:0009c9a0       _fftw_dht_r2hc_register    1009d9a0 f   FFTW3d:dht-r2hc.obj
 0001:0009d4f0       _fftw_dht_rader_register   1009e4f0 f   FFTW3d:dht-rader.obj
 0001:0009d7e8       _fftw_rdft2_vrank_geq1_register 1009e7e8 f   FFTW3d:vrank-geq1-rdft2.obj
 0001:0009d8e4       _fftw_rdft2_nop_register   1009e8e4 f   FFTW3d:nop2.obj
 0001:0009dd7c       _fftw_rdft2_rank0_register 1009ed7c f   FFTW3d:rank0-rdft2.obj
 0001:0009ea18       _fftw_rdft2_buffered_register 1009fa18 f   FFTW3d:buffered2.obj
 0001:0009ed98       _fftw_rdft2_rank_geq2_register 1009fd98 f   FFTW3d:rank-geq2-rdft2.obj
 0001:0009f868       _fftw_rdft2_radix2_register 100a0868 f   FFTW3d:rdft2-radix2.obj
 0001:0009fcec       _fftw_redft00e_r2hc_pad_register 100a0cec f   FFTW3d:redft00e-r2hc-pad.obj
 0001:000a01c4       _fftw_rodft00e_r2hc_pad_register 100a11c4 f   FFTW3d:rodft00e-r2hc-pad.obj
 0001:000a0f50       _fftw_reodft010e_r2hc_register 100a1f50 f   FFTW3d:reodft010e-r2hc.obj
 0001:000a1b3c       _fftw_reodft11e_radix2_r2hc_register 100a2b3c f   FFTW3d:reodft11e-radix2.obj
 0001:000a30f0       _fftw_reodft11e_r2hc_odd_register 100a40f0 f   FFTW3d:reodft11e-r2hc-odd.obj
 0001:000a3104       _fftwf_tensor_max_index    100a4104 f   FFTW3d:tensor4.obj
 0001:000a3104       _fftw_tensor_max_index     100a4104 f   FFTW3d:tensor4.obj
 0001:000a3104       _fftwl_tensor_max_index    100a4104 f   FFTW3d:tensor4.obj
 0001:000a3180       _fftwf_tensor_min_ostride  100a4180 f   FFTW3d:tensor4.obj
 0001:000a3180       _fftw_tensor_min_ostride   100a4180 f   FFTW3d:tensor4.obj
 0001:000a3180       _fftwl_tensor_min_ostride  100a4180 f   FFTW3d:tensor4.obj
 0001:000a31f8       _fftwf_dft_solve           100a41f8 f   FFTW3d:solve.obj
 0001:000a31f8       _fftw_dft_solve            100a41f8 f   FFTW3d:solve.obj
 0001:000a3228       _fftw_pickdim              100a4228 f   FFTW3d:pickdim.obj
 0001:000a32ac       _fftw_iabs                 100a42ac f   FFTW3d:iabs.obj
 0001:000a32ac       _fftwl_iabs                100a42ac f   FFTW3d:iabs.obj
 0001:000a32ac       _fftwf_iabs                100a42ac f   FFTW3d:iabs.obj
 0001:000a33a0       _fftw_transposable         100a43a0 f   FFTW3d:transpose.obj
 0001:000a33ec       _fftw_transpose_dims       100a43ec f   FFTW3d:transpose.obj
 0001:000a3448       _fftw_transpose_simplep    100a4448 f   FFTW3d:transpose.obj
 0001:000a3494       _fftw_transpose_slowp      100a4494 f   FFTW3d:transpose.obj
 0001:000a37d8       _fftw_transpose            100a47d8 f   FFTW3d:transpose.obj
 0001:000a3988       _fftw_transpose_slow       100a4988 f   FFTW3d:transpose.obj
 0001:000a3cfc       _fftw_compute_nbuf         100a4cfc f   FFTW3d:buffered.obj
 0001:000a3cfc       _fftwl_compute_nbuf        100a4cfc f   FFTW3d:buffered.obj
 0001:000a3cfc       _fftwf_compute_nbuf        100a4cfc f   FFTW3d:buffered.obj
 0001:000a3d64       _fftw_mktensor_2d          100a4d64 f   FFTW3d:tensor2.obj
 0001:000a3e2c       _fftw_twiddle_length       100a4e2c f   FFTW3d:twiddle.obj
 0001:000a3fe4       _fftw_mktwiddle            100a4fe4 f   FFTW3d:twiddle.obj
 0001:000a406c       _fftw_twiddle_destroy      100a506c f   FFTW3d:twiddle.obj
 0001:000a40c4       _fftw_twiddle_awake        100a50c4 f   FFTW3d:twiddle.obj
 0001:000a40f4       _fftw_rader_tl_insert      100a50f4 f   FFTW3d:rader.obj
 0001:000a412c       _fftw_rader_tl_delete      100a512c f   FFTW3d:rader.obj
 0001:000a4188       _fftw_cos2pi               100a5188 f   FFTW3d:trig.obj
 0001:000a41b0       _fftw_sin2pi               100a51b0 f   FFTW3d:trig.obj
 0001:000a41d8       _fftw_tan2pi               100a51d8 f   FFTW3d:trig.obj
 0001:000a41e0       _fftw_dft_rader_mkomega    100a51e0 f   FFTW3d:rader-omega.obj
 0001:000a4310       _fftw_dft_rader_free_omega 100a5310 f   FFTW3d:rader-omega.obj
 0001:000a43a8       _fftw_codelet_n1fv_2       100a53a8 f   FFTW3d:n1fv_2.obj
 0001:000a448c       _fftw_codelet_n1fv_3       100a548c f   FFTW3d:n1fv_3.obj
 0001:000a457c       _fftw_codelet_n1fv_4       100a557c f   FFTW3d:n1fv_4.obj
 0001:000a46fc       _fftw_codelet_n1fv_5       100a56fc f   FFTW3d:n1fv_5.obj
 0001:000a4888       _fftw_codelet_n1fv_6       100a5888 f   FFTW3d:n1fv_6.obj
 0001:000a4b24       _fftw_codelet_n1fv_7       100a5b24 f   FFTW3d:n1fv_7.obj
 0001:000a4d20       _fftw_codelet_n1fv_8       100a5d20 f   FFTW3d:n1fv_8.obj
 0001:000a50c0       _fftw_codelet_n1fv_9       100a60c0 f   FFTW3d:n1fv_9.obj
 0001:000a5410       _fftw_codelet_n1fv_10      100a6410 f   FFTW3d:n1fv_10.obj
 0001:000a59f4       _fftw_codelet_n1fv_11      100a69f4 f   FFTW3d:n1fv_11.obj
 0001:000a5d60       _fftw_codelet_n1fv_12      100a6d60 f   FFTW3d:n1fv_12.obj
 0001:000a63dc       _fftw_codelet_n1fv_13      100a73dc f   FFTW3d:n1fv_13.obj
 0001:000a69ac       _fftw_codelet_n1fv_14      100a79ac f   FFTW3d:n1fv_14.obj
 0001:000a6ff8       _fftw_codelet_n1fv_15      100a7ff8 f   FFTW3d:n1fv_15.obj
 0001:000a74b0       _fftw_codelet_n1fv_16      100a84b0 f   FFTW3d:n1fv_16.obj
 0001:000a7544       _fftw_codelet_n1bv_2       100a8544 f   FFTW3d:n1bv_2.obj
 0001:000a7628       _fftw_codelet_n1bv_3       100a8628 f   FFTW3d:n1bv_3.obj
 0001:000a7718       _fftw_codelet_n1bv_4       100a8718 f   FFTW3d:n1bv_4.obj
 0001:000a7898       _fftw_codelet_n1bv_5       100a8898 f   FFTW3d:n1bv_5.obj
 0001:000a7a20       _fftw_codelet_n1bv_6       100a8a20 f   FFTW3d:n1bv_6.obj
 0001:000a7cbc       _fftw_codelet_n1bv_7       100a8cbc f   FFTW3d:n1bv_7.obj
 0001:000a7eb8       _fftw_codelet_n1bv_8       100a8eb8 f   FFTW3d:n1bv_8.obj
 0001:000a825c       _fftw_codelet_n1bv_9       100a925c f   FFTW3d:n1bv_9.obj
 0001:000a85ac       _fftw_codelet_n1bv_10      100a95ac f   FFTW3d:n1bv_10.obj
 0001:000a8b98       _fftw_codelet_n1bv_11      100a9b98 f   FFTW3d:n1bv_11.obj
 0001:000a8efc       _fftw_codelet_n1bv_12      100a9efc f   FFTW3d:n1bv_12.obj
 0001:000a9580       _fftw_codelet_n1bv_13      100aa580 f   FFTW3d:n1bv_13.obj
 0001:000a9b4c       _fftw_codelet_n1bv_14      100aab4c f   FFTW3d:n1bv_14.obj
 0001:000aa180       _fftw_codelet_n1bv_15      100ab180 f   FFTW3d:n1bv_15.obj
 0001:000aa634       _fftw_codelet_n1bv_16      100ab634 f   FFTW3d:n1bv_16.obj
 0001:000aa6bc       _fftw_codelet_n2fv_2       100ab6bc f   FFTW3d:n2fv_2.obj
 0001:000aa790       _fftw_codelet_n2fv_3       100ab790 f   FFTW3d:n2fv_3.obj
 0001:000aa868       _fftw_codelet_n2fv_4       100ab868 f   FFTW3d:n2fv_4.obj
 0001:000aa9d4       _fftw_codelet_n2fv_5       100ab9d4 f   FFTW3d:n2fv_5.obj
 0001:000aab48       _fftw_codelet_n2fv_6       100abb48 f   FFTW3d:n2fv_6.obj
 0001:000aadc8       _fftw_codelet_n2fv_7       100abdc8 f   FFTW3d:n2fv_7.obj
 0001:000aafa4       _fftw_codelet_n2fv_8       100abfa4 f   FFTW3d:n2fv_8.obj
 0001:000ab324       _fftw_codelet_n2fv_9       100ac324 f   FFTW3d:n2fv_9.obj
 0001:000ab654       _fftw_codelet_n2fv_10      100ac654 f   FFTW3d:n2fv_10.obj
 0001:000abc18       _fftw_codelet_n2fv_11      100acc18 f   FFTW3d:n2fv_11.obj
 0001:000abf68       _fftw_codelet_n2fv_12      100acf68 f   FFTW3d:n2fv_12.obj
 0001:000ac5c8       _fftw_codelet_n2fv_13      100ad5c8 f   FFTW3d:n2fv_13.obj
 0001:000acb78       _fftw_codelet_n2fv_14      100adb78 f   FFTW3d:n2fv_14.obj
 0001:000ad1a4       _fftw_codelet_n2fv_15      100ae1a4 f   FFTW3d:n2fv_15.obj
 0001:000ad63c       _fftw_codelet_n2fv_16      100ae63c f   FFTW3d:n2fv_16.obj
 0001:000ad6c4       _fftw_codelet_n2bv_2       100ae6c4 f   FFTW3d:n2bv_2.obj
 0001:000ad798       _fftw_codelet_n2bv_3       100ae798 f   FFTW3d:n2bv_3.obj
 0001:000ad870       _fftw_codelet_n2bv_4       100ae870 f   FFTW3d:n2bv_4.obj
 0001:000ad9dc       _fftw_codelet_n2bv_5       100ae9dc f   FFTW3d:n2bv_5.obj
 0001:000adb4c       _fftw_codelet_n2bv_6       100aeb4c f   FFTW3d:n2bv_6.obj
 0001:000addcc       _fftw_codelet_n2bv_7       100aedcc f   FFTW3d:n2bv_7.obj
 0001:000adfa8       _fftw_codelet_n2bv_8       100aefa8 f   FFTW3d:n2bv_8.obj
 0001:000ae32c       _fftw_codelet_n2bv_9       100af32c f   FFTW3d:n2bv_9.obj
 0001:000ae65c       _fftw_codelet_n2bv_10      100af65c f   FFTW3d:n2bv_10.obj
 0001:000aec2c       _fftw_codelet_n2bv_11      100afc2c f   FFTW3d:n2bv_11.obj
 0001:000aef74       _fftw_codelet_n2bv_12      100aff74 f   FFTW3d:n2bv_12.obj
 0001:000af5d8       _fftw_codelet_n2bv_13      100b05d8 f   FFTW3d:n2bv_13.obj
 0001:000afb88       _fftw_codelet_n2bv_14      100b0b88 f   FFTW3d:n2bv_14.obj
 0001:000b01a0       _fftw_codelet_n2bv_15      100b11a0 f   FFTW3d:n2bv_15.obj
 0001:000b0634       _fftw_codelet_n2bv_16      100b1634 f   FFTW3d:n2bv_16.obj
 0001:000b0b14       _fftw_codelet_m1fv_16      100b1b14 f   FFTW3d:m1fv_16.obj
 0001:000b1784       _fftw_codelet_m1fv_32      100b2784 f   FFTW3d:m1fv_32.obj
 0001:000b37b8       _fftw_codelet_m1fv_64      100b47b8 f   FFTW3d:m1fv_64.obj
 0001:000b3c94       _fftw_codelet_m1bv_16      100b4c94 f   FFTW3d:m1bv_16.obj
 0001:000b4910       _fftw_codelet_m1bv_32      100b5910 f   FFTW3d:m1bv_32.obj
 0001:000b6928       _fftw_codelet_m1bv_64      100b7928 f   FFTW3d:m1bv_64.obj
 0001:000b6dec       _fftw_codelet_m2fv_16      100b7dec f   FFTW3d:m2fv_16.obj
 0001:000b79cc       _fftw_codelet_m2fv_32      100b89cc f   FFTW3d:m2fv_32.obj
 0001:000b993c       _fftw_codelet_m2fv_64      100ba93c f   FFTW3d:m2fv_64.obj
 0001:000b9dfc       _fftw_codelet_m2bv_16      100badfc f   FFTW3d:m2bv_16.obj
 0001:000ba9dc       _fftw_codelet_m2bv_32      100bb9dc f   FFTW3d:m2bv_32.obj
 0001:000bc934       _fftw_codelet_m2bv_64      100bd934 f   FFTW3d:m2bv_64.obj
 0001:000bc9e0       _fftw_codelet_t1fv_2       100bd9e0 f   FFTW3d:t1fv_2.obj
 0001:000bcb08       _fftw_codelet_t1fv_3       100bdb08 f   FFTW3d:t1fv_3.obj
 0001:000bcc58       _fftw_codelet_t1fv_4       100bdc58 f   FFTW3d:t1fv_4.obj
 0001:000bce74       _fftw_codelet_t1fv_5       100bde74 f   FFTW3d:t1fv_5.obj
 0001:000bd0b8       _fftw_codelet_t1fv_6       100be0b8 f   FFTW3d:t1fv_6.obj
 0001:000bd43c       _fftw_codelet_t1fv_7       100be43c f   FFTW3d:t1fv_7.obj
 0001:000bd73c       _fftw_codelet_t1fv_8       100be73c f   FFTW3d:t1fv_8.obj
 0001:000bdc40       _fftw_codelet_t1fv_9       100bec40 f   FFTW3d:t1fv_9.obj
 0001:000be120       _fftw_codelet_t1fv_10      100bf120 f   FFTW3d:t1fv_10.obj
 0001:000be650       _fftw_codelet_t1fv_12      100bf650 f   FFTW3d:t1fv_12.obj
 0001:000beee0       _fftw_codelet_t1fv_15      100bfee0 f   FFTW3d:t1fv_15.obj
 0001:000bf63c       _fftw_codelet_t1fv_16      100c063c f   FFTW3d:t1fv_16.obj
 0001:000c0810       _fftw_codelet_t1fv_32      100c1810 f   FFTW3d:t1fv_32.obj
 0001:000c33a4       _fftw_codelet_t1fv_64      100c43a4 f   FFTW3d:t1fv_64.obj
 0001:000c348c       _fftw_codelet_t1bv_2       100c448c f   FFTW3d:t1bv_2.obj
 0001:000c35b4       _fftw_codelet_t1bv_3       100c45b4 f   FFTW3d:t1bv_3.obj
 0001:000c370c       _fftw_codelet_t1bv_4       100c470c f   FFTW3d:t1bv_4.obj
 0001:000c3928       _fftw_codelet_t1bv_5       100c4928 f   FFTW3d:t1bv_5.obj
 0001:000c3b6c       _fftw_codelet_t1bv_6       100c4b6c f   FFTW3d:t1bv_6.obj
 0001:000c3ef0       _fftw_codelet_t1bv_7       100c4ef0 f   FFTW3d:t1bv_7.obj
 0001:000c41f0       _fftw_codelet_t1bv_8       100c51f0 f   FFTW3d:t1bv_8.obj
 0001:000c4700       _fftw_codelet_t1bv_9       100c5700 f   FFTW3d:t1bv_9.obj
 0001:000c4be0       _fftw_codelet_t1bv_10      100c5be0 f   FFTW3d:t1bv_10.obj
 0001:000c5120       _fftw_codelet_t1bv_12      100c6120 f   FFTW3d:t1bv_12.obj
 0001:000c59a8       _fftw_codelet_t1bv_15      100c69a8 f   FFTW3d:t1bv_15.obj
 0001:000c6100       _fftw_codelet_t1bv_16      100c7100 f   FFTW3d:t1bv_16.obj
 0001:000c72bc       _fftw_codelet_t1bv_32      100c82bc f   FFTW3d:t1bv_32.obj
 0001:000c9e20       _fftw_codelet_t1bv_64      100cae20 f   FFTW3d:t1bv_64.obj
 0001:000c9f70       _fftw_codelet_q1fv_2       100caf70 f   FFTW3d:q1fv_2.obj
 0001:000ca50c       _fftw_codelet_q1fv_4       100cb50c f   FFTW3d:q1fv_4.obj
 0001:000cbf28       _fftw_codelet_q1fv_8       100ccf28 f   FFTW3d:q1fv_8.obj
 0001:000cc054       _fftw_codelet_q1bv_2       100cd054 f   FFTW3d:q1bv_2.obj
 0001:000cc5f0       _fftw_codelet_q1bv_4       100cd5f0 f   FFTW3d:q1bv_4.obj
 0001:000ce038       _fftw_codelet_q1bv_8       100cf038 f   FFTW3d:q1bv_8.obj
 0001:000ce198       _fftw_codelet_q1_2         100cf198 f   FFTW3d:q1_2.obj
 0001:000ce868       _fftw_codelet_q1_4         100cf868 f   FFTW3d:q1_4.obj
 0001:000d0a10       _fftw_codelet_q1_8         100d1a10 f   FFTW3d:q1_8.obj
 0001:000d0e20       _fftw_codelet_q1_3         100d1e20 f   FFTW3d:q1_3.obj
 0001:000d1c70       _fftw_codelet_q1_5         100d2c70 f   FFTW3d:q1_5.obj
 0001:000d2ea0       _fftw_codelet_q1_6         100d3ea0 f   FFTW3d:q1_6.obj
 0001:000d2f54       _fftw_codelet_n1_2         100d3f54 f   FFTW3d:n1_2.obj
 0001:000d3068       _fftw_codelet_n1_3         100d4068 f   FFTW3d:n1_3.obj
 0001:000d3198       _fftw_codelet_n1_4         100d4198 f   FFTW3d:n1_4.obj
 0001:000d33c0       _fftw_codelet_n1_5         100d43c0 f   FFTW3d:n1_5.obj
 0001:000d3610       _fftw_codelet_n1_6         100d4610 f   FFTW3d:n1_6.obj
 0001:000d39c8       _fftw_codelet_n1_7         100d49c8 f   FFTW3d:n1_7.obj
 0001:000d3cc8       _fftw_codelet_n1_8         100d4cc8 f   FFTW3d:n1_8.obj
 0001:000d4198       _fftw_codelet_n1_9         100d5198 f   FFTW3d:n1_9.obj
 0001:000d4698       _fftw_codelet_n1_10        100d5698 f   FFTW3d:n1_10.obj
 0001:000d4ec0       _fftw_codelet_n1_11        100d5ec0 f   FFTW3d:n1_11.obj
 0001:000d53d8       _fftw_codelet_n1_12        100d63d8 f   FFTW3d:n1_12.obj
 0001:000d5dc4       _fftw_codelet_n1_13        100d6dc4 f   FFTW3d:n1_13.obj
 0001:000d65d8       _fftw_codelet_n1_14        100d75d8 f   FFTW3d:n1_14.obj
 0001:000d6f68       _fftw_codelet_n1_15        100d7f68 f   FFTW3d:n1_15.obj
 0001:000d7744       _fftw_codelet_n1_16        100d8744 f   FFTW3d:n1_16.obj
 0001:000d7ebc       _fftw_codelet_m1_16        100d8ebc f   FFTW3d:m1_16.obj
 0001:000d9110       _fftw_codelet_m1_32        100da110 f   FFTW3d:m1_32.obj
 0001:000dc710       _fftw_codelet_m1_64        100dd710 f   FFTW3d:m1_64.obj
 0001:000dc7c8       _fftw_codelet_t1_2         100dd7c8 f   FFTW3d:t1_2.obj
 0001:000dc914       _fftw_codelet_t1_3         100dd914 f   FFTW3d:t1_3.obj
 0001:000dcab0       _fftw_codelet_t1_4         100ddab0 f   FFTW3d:t1_4.obj
 0001:000dcd70       _fftw_codelet_t1_5         100ddd70 f   FFTW3d:t1_5.obj
 0001:000dd048       _fftw_codelet_t1_6         100de048 f   FFTW3d:t1_6.obj
 0001:000dd494       _fftw_codelet_t1_7         100de494 f   FFTW3d:t1_7.obj
 0001:000dd82c       _fftw_codelet_t1_8         100de82c f   FFTW3d:t1_8.obj
 0001:000dde04       _fftw_codelet_t1_9         100dee04 f   FFTW3d:t1_9.obj
 0001:000de4a8       _fftw_codelet_t1_10        100df4a8 f   FFTW3d:t1_10.obj
 0001:000deb84       _fftw_codelet_t1_12        100dfb84 f   FFTW3d:t1_12.obj
 0001:000df6d4       _fftw_codelet_t1_15        100e06d4 f   FFTW3d:t1_15.obj
 0001:000e01a4       _fftw_codelet_t1_16        100e11a4 f   FFTW3d:t1_16.obj
 0001:000e1d10       _fftw_codelet_t1_32        100e2d10 f   FFTW3d:t1_32.obj
 0001:000e5e90       _fftw_codelet_t1_64        100e6e90 f   FFTW3d:t1_64.obj
 0001:000e6054       _fftw_codelet_t2_4         100e7054 f   FFTW3d:t2_4.obj
 0001:000e656c       _fftw_codelet_t2_8         100e756c f   FFTW3d:t2_8.obj
 0001:000e723c       _fftw_codelet_t2_16        100e823c f   FFTW3d:t2_16.obj
 0001:000e92b4       _fftw_codelet_t2_32        100ea2b4 f   FFTW3d:t2_32.obj
 0001:000edeb8       _fftw_codelet_t2_64        100eeeb8 f   FFTW3d:t2_64.obj
 0001:000eded0       _fftw_mkplan_dft           100eeed0 f   FFTW3d:plan.obj
 0001:000eded0       _fftw_mkplan_rdft2         100eeed0 f   FFTW3d:plan.obj
 0001:000eded0       _fftw_mkplan_rdft          100eeed0 f   FFTW3d:plan.obj
 0001:000edee8       _fftw_rdft2_inplace_strides 100eeee8 f   FFTW3d:rdft2-inplace-strides.obj
 0001:000ee078       _fftwf_rdft2_solve         100ef078 f   FFTW3d:solve2.obj
 0001:000ee078       _fftw_rdft2_solve          100ef078 f   FFTW3d:solve2.obj
 0001:000ee280       _fftw_codelet_e01_8        100ef280 f   FFTW3d:e01_8.obj
 0001:000ee48c       _fftw_codelet_e10_8        100ef48c f   FFTW3d:e10_8.obj
 0001:000ee53c       _fftw_codelet_hc2r_3       100ef53c f   FFTW3d:hc2r_3.obj
 0001:000ee610       _fftw_codelet_hc2r_4       100ef610 f   FFTW3d:hc2r_4.obj
 0001:000ee738       _fftw_codelet_hc2r_5       100ef738 f   FFTW3d:hc2r_5.obj
 0001:000ee85c       _fftw_codelet_hc2r_6       100ef85c f   FFTW3d:hc2r_6.obj
 0001:000eea70       _fftw_codelet_hc2r_7       100efa70 f   FFTW3d:hc2r_7.obj
 0001:000eebf4       _fftw_codelet_hc2r_8       100efbf4 f   FFTW3d:hc2r_8.obj
 0001:000eee30       _fftw_codelet_hc2r_9       100efe30 f   FFTW3d:hc2r_9.obj
 0001:000ef068       _fftw_codelet_hc2r_10      100f0068 f   FFTW3d:hc2r_10.obj
 0001:000ef4b8       _fftw_codelet_hc2r_11      100f04b8 f   FFTW3d:hc2r_11.obj
 0001:000ef70c       _fftw_codelet_hc2r_12      100f070c f   FFTW3d:hc2r_12.obj
 0001:000efb6c       _fftw_codelet_hc2r_13      100f0b6c f   FFTW3d:hc2r_13.obj
 0001:000eff48       _fftw_codelet_hc2r_14      100f0f48 f   FFTW3d:hc2r_14.obj
 0001:000f0368       _fftw_codelet_hc2r_15      100f1368 f   FFTW3d:hc2r_15.obj
 0001:000f06cc       _fftw_codelet_hc2r_16      100f16cc f   FFTW3d:hc2r_16.obj
 0001:000f0f50       _fftw_codelet_hc2r_32      100f1f50 f   FFTW3d:hc2r_32.obj
 0001:000f17d8       _fftw_codelet_mhc2r_32     100f27d8 f   FFTW3d:mhc2r_32.obj
 0001:000f2ee0       _fftw_codelet_mhc2r_64     100f3ee0 f   FFTW3d:mhc2r_64.obj
 0001:000f67c8       _fftw_codelet_mhc2r_128    100f77c8 f   FFTW3d:mhc2r_128.obj
 0001:000f68b0       _fftw_codelet_hb_2         100f78b0 f   FFTW3d:hb_2.obj
 0001:000f6a3c       _fftw_codelet_hb_3         100f7a3c f   FFTW3d:hb_3.obj
 0001:000f6c2c       _fftw_codelet_hb_4         100f7c2c f   FFTW3d:hb_4.obj
 0001:000f6f10       _fftw_codelet_hb_5         100f7f10 f   FFTW3d:hb_5.obj
 0001:000f7250       _fftw_codelet_hb_6         100f8250 f   FFTW3d:hb_6.obj
 0001:000f77d8       _fftw_codelet_hb_7         100f87d8 f   FFTW3d:hb_7.obj
 0001:000f7c5c       _fftw_codelet_hb_8         100f8c5c f   FFTW3d:hb_8.obj
 0001:000f8368       _fftw_codelet_hb_9         100f9368 f   FFTW3d:hb_9.obj
 0001:000f8aa8       _fftw_codelet_hb_10        100f9aa8 f   FFTW3d:hb_10.obj
 0001:000f91ec       _fftw_codelet_hb_12        100fa1ec f   FFTW3d:hb_12.obj
 0001:000f9f68       _fftw_codelet_hb_15        100faf68 f   FFTW3d:hb_15.obj
 0001:000faa18       _fftw_codelet_hb_16        100fba18 f   FFTW3d:hb_16.obj
 0001:000fc850       _fftw_codelet_hb_32        100fd850 f   FFTW3d:hb_32.obj
 0001:0010105c       _fftw_codelet_hb_64        1010205c f   FFTW3d:hb_64.obj
 0001:00101188       _fftw_codelet_hc2rIII_2    10102188 f   FFTW3d:hc2rIII_2.obj
 0001:00101230       _fftw_codelet_hc2rIII_3    10102230 f   FFTW3d:hc2rIII_3.obj
 0001:00101304       _fftw_codelet_hc2rIII_4    10102304 f   FFTW3d:hc2rIII_4.obj
 0001:00101430       _fftw_codelet_hc2rIII_5    10102430 f   FFTW3d:hc2rIII_5.obj
 0001:00101558       _fftw_codelet_hc2rIII_6    10102558 f   FFTW3d:hc2rIII_6.obj
 0001:00101768       _fftw_codelet_hc2rIII_7    10102768 f   FFTW3d:hc2rIII_7.obj
 0001:00101928       _fftw_codelet_hc2rIII_8    10102928 f   FFTW3d:hc2rIII_8.obj
 0001:00101b68       _fftw_codelet_hc2rIII_9    10102b68 f   FFTW3d:hc2rIII_9.obj
 0001:00101db0       _fftw_codelet_hc2rIII_10   10102db0 f   FFTW3d:hc2rIII_10.obj
 0001:00102064       _fftw_codelet_hc2rIII_12   10103064 f   FFTW3d:hc2rIII_12.obj
 0001:00102428       _fftw_codelet_hc2rIII_15   10103428 f   FFTW3d:hc2rIII_15.obj
 0001:00102844       _fftw_codelet_hc2rIII_16   10103844 f   FFTW3d:hc2rIII_16.obj
 0001:00103244       _fftw_codelet_hc2rIII_32   10104244 f   FFTW3d:hc2rIII_32.obj
 0001:00103c4c       _fftw_codelet_mhc2rIII_32  10104c4c f   FFTW3d:mhc2rIII_32.obj
 0001:001057ac       _fftw_codelet_mhc2rIII_64  101067ac f   FFTW3d:mhc2rIII_64.obj
 0001:00105834       _fftw_codelet_r2hc_2       10106834 f   FFTW3d:r2hc_2.obj
 0001:001058e8       _fftw_codelet_r2hc_3       101068e8 f   FFTW3d:r2hc_3.obj
 0001:001059a0       _fftw_codelet_r2hc_4       101069a0 f   FFTW3d:r2hc_4.obj
 0001:00105aac       _fftw_codelet_r2hc_5       10106aac f   FFTW3d:r2hc_5.obj
 0001:00105bcc       _fftw_codelet_r2hc_6       10106bcc f   FFTW3d:r2hc_6.obj
 0001:00105d8c       _fftw_codelet_r2hc_7       10106d8c f   FFTW3d:r2hc_7.obj
 0001:00105ee0       _fftw_codelet_r2hc_8       10106ee0 f   FFTW3d:r2hc_8.obj
 0001:0010617c       _fftw_codelet_r2hc_9       1010717c f   FFTW3d:r2hc_9.obj
 0001:00106394       _fftw_codelet_r2hc_10      10107394 f   FFTW3d:r2hc_10.obj
 0001:00106758       _fftw_codelet_r2hc_11      10107758 f   FFTW3d:r2hc_11.obj
 0001:001069a0       _fftw_codelet_r2hc_12      101079a0 f   FFTW3d:r2hc_12.obj
 0001:00106df8       _fftw_codelet_r2hc_13      10107df8 f   FFTW3d:r2hc_13.obj
 0001:001071dc       _fftw_codelet_r2hc_14      101081dc f   FFTW3d:r2hc_14.obj
 0001:001075d8       _fftw_codelet_r2hc_15      101085d8 f   FFTW3d:r2hc_15.obj
 0001:00107954       _fftw_codelet_r2hc_16      10108954 f   FFTW3d:r2hc_16.obj
 0001:001081d0       _fftw_codelet_r2hc_32      101091d0 f   FFTW3d:r2hc_32.obj
 0001:001089e4       _fftw_codelet_mr2hc_32     101099e4 f   FFTW3d:mr2hc_32.obj
 0001:00109e78       _fftw_codelet_mr2hc_64     1010ae78 f   FFTW3d:mr2hc_64.obj
 0001:0010d930       _fftw_codelet_mr2hc_128    1010e930 f   FFTW3d:mr2hc_128.obj
 0001:0010da00       _fftw_codelet_hf_2         1010ea00 f   FFTW3d:hf_2.obj
 0001:0010db6c       _fftw_codelet_hf_3         1010eb6c f   FFTW3d:hf_3.obj
 0001:0010dd34       _fftw_codelet_hf_4         1010ed34 f   FFTW3d:hf_4.obj
 0001:0010e048       _fftw_codelet_hf_5         1010f048 f   FFTW3d:hf_5.obj
 0001:0010e37c       _fftw_codelet_hf_6         1010f37c f   FFTW3d:hf_6.obj
 0001:0010e854       _fftw_codelet_hf_7         1010f854 f   FFTW3d:hf_7.obj
 0001:0010ec94       _fftw_codelet_hf_8         1010fc94 f   FFTW3d:hf_8.obj
 0001:0010f338       _fftw_codelet_hf_9         10110338 f   FFTW3d:hf_9.obj
 0001:0010fad4       _fftw_codelet_hf_10        10110ad4 f   FFTW3d:hf_10.obj
 0001:00110280       _fftw_codelet_hf_12        10111280 f   FFTW3d:hf_12.obj
 0001:00110f58       _fftw_codelet_hf_15        10111f58 f   FFTW3d:hf_15.obj
 0001:00111ad4       _fftw_codelet_hf_16        10112ad4 f   FFTW3d:hf_16.obj
 0001:00113914       _fftw_codelet_hf_32        10114914 f   FFTW3d:hf_32.obj
 0001:00117ad8       _fftw_codelet_hf_64        10118ad8 f   FFTW3d:hf_64.obj
 0001:00117ce0       _fftw_codelet_hf2_4        10118ce0 f   FFTW3d:hf2_4.obj
 0001:0011829c       _fftw_codelet_hf2_8        1011929c f   FFTW3d:hf2_8.obj
 0001:00119278       _fftw_codelet_hf2_16       1011a278 f   FFTW3d:hf2_16.obj
 0001:0011b5b4       _fftw_codelet_hf2_32       1011c5b4 f   FFTW3d:hf2_32.obj
 0001:00121080       _fftw_codelet_hf2_64       10122080 f   FFTW3d:hf2_64.obj
 0001:0012117c       _fftw_codelet_r2hcII_2     1012217c f   FFTW3d:r2hcII_2.obj
 0001:00121224       _fftw_codelet_r2hcII_3     10122224 f   FFTW3d:r2hcII_3.obj
 0001:001212ec       _fftw_codelet_r2hcII_4     101222ec f   FFTW3d:r2hcII_4.obj
 0001:001213f4       _fftw_codelet_r2hcII_5     101223f4 f   FFTW3d:r2hcII_5.obj
 0001:00121518       _fftw_codelet_r2hcII_6     10122518 f   FFTW3d:r2hcII_6.obj
 0001:001216cc       _fftw_codelet_r2hcII_7     101226cc f   FFTW3d:r2hcII_7.obj
 0001:00121884       _fftw_codelet_r2hcII_8     10122884 f   FFTW3d:r2hcII_8.obj
 0001:00121b68       _fftw_codelet_r2hcII_9     10122b68 f   FFTW3d:r2hcII_9.obj
 0001:00121d7c       _fftw_codelet_r2hcII_10    10122d7c f   FFTW3d:r2hcII_10.obj
 0001:0012200c       _fftw_codelet_r2hcII_12    1012300c f   FFTW3d:r2hcII_12.obj
 0001:00122448       _fftw_codelet_r2hcII_15    10123448 f   FFTW3d:r2hcII_15.obj
 0001:00122840       _fftw_codelet_r2hcII_16    10123840 f   FFTW3d:r2hcII_16.obj
 0001:0012332c       _fftw_codelet_r2hcII_32    1012432c f   FFTW3d:r2hcII_32.obj
 0001:00123d80       _fftw_codelet_mr2hcII_32   10124d80 f   FFTW3d:mr2hcII_32.obj
 0001:00125698       _fftw_codelet_mr2hcII_64   10126698 f   FFTW3d:mr2hcII_64.obj
 0001:001256b0       _fftw_sincos               101266b0 f   FFTW3d:trig1.obj
 0001:00125854       _fftw_kdft_register        10126854 f   FFTW3d:kdft.obj
 0001:00125b80       _fftw_kdft_dit_register    10126b80 f   FFTW3d:kdft-dit.obj
 0001:00125ce8       _fftw_kdft_difsq_register  10126ce8 f   FFTW3d:kdft-difsq.obj
 0001:00125dec       _fftw_kr2r_register        10126dec f   FFTW3d:kr2r.obj
 0001:00125e58       _fftw_khc2r_register       10126e58 f   FFTW3d:khc2r.obj
 0001:00125e8c       _fftw_khc2hc_dif_register  10126e8c f   FFTW3d:khc2hc-dif.obj
 0001:00125ed0       _fftw_kr2hc_register       10126ed0 f   FFTW3d:kr2hc.obj
 0001:00125f04       _fftw_khc2hc_dit_register  10126f04 f   FFTW3d:khc2hc-dit.obj
 0001:00125fbc       _fftw_have_sse2            10126fbc f   FFTW3d:sse2.obj
 0001:001261d4       _fftw_mksolver_dft_direct  101271d4 f   FFTW3d:direct.obj
 0001:001263b8       _fftw_mksolver_dft_ct_dit  101273b8 f   FFTW3d:ct-dit.obj
 0001:00126738       _fftw_mksolver_dft_ct_ditbuf 10127738 f   FFTW3d:ct-ditbuf.obj
 0001:001268cc       _fftw_mksolver_dft_ct_ditf 101278cc f   FFTW3d:ct-ditf.obj
 0001:00126d7c       _fftw_mksolver_rdft_r2hc_direct 10127d7c f   FFTW3d:direct.obj
 0001:00126db0       _fftw_mksolver_rdft_hc2r_direct 10127db0 f   FFTW3d:direct.obj
 0001:00126de4       _fftw_mksolver_rdft_r2r_direct 10127de4 f   FFTW3d:direct.obj
 0001:00127210       _fftw_mksolver_rdft2_r2hc_direct 10128210 f   FFTW3d:direct2.obj
 0001:00127244       _fftw_mksolver_rdft2_hc2r_direct 10128244 f   FFTW3d:direct2.obj
 0001:001275d0       _fftw_mksolver_rdft_hc2hc_dif 101285d0 f   FFTW3d:hc2hc-dif.obj
 0001:00127e30       _fftw_mksolver_rdft_hc2hc_ditbuf 10128e30 f   FFTW3d:hc2hc-buf.obj
 0001:00127e68       _fftw_mksolver_rdft_hc2hc_difbuf 10128e68 f   FFTW3d:hc2hc-buf.obj
 0001:001280c8       _fftw_mksolver_rdft_hc2hc_dit 101290c8 f   FFTW3d:hc2hc-dit.obj
 0001:001280e4       _fftw_mkstride             101290e4 f   FFTW3d:stride.obj
 0001:00128204       _fftw_stride_destroy       10129204 f   FFTW3d:stride.obj
 0001:001282ac       _fftw_dft_ct_applicable    101292ac f   FFTW3d:ct.obj
 0001:001282f4       _fftw_mkplan_dft_ct        101292f4 f   FFTW3d:ct.obj
 0001:001283c4       _fftw_mksolver_dft_ct      101293c4 f   FFTW3d:ct.obj
 0001:001283c4       _fftw_mksolver_rdft_hc2hc  101293c4 f   FFTW3d:ct.obj
 0001:001283e8       _fftw_dft_mkcld_dit        101293e8 f   FFTW3d:ct.obj
 0001:00128564       _fftw_rdft_hc2hc_applicable 10129564 f   FFTW3d:hc2hc.obj
 0001:001285bc       _fftw_mkplan_rdft_hc2hc    101295bc f   FFTW3d:hc2hc.obj
 0001:00128764       _fftw_rdft_mkcldrn_dit     10129764 f   FFTW3d:hc2hc.obj
 0001:0012885c       _fftw_rdft_mkcldrn_dif     1012985c f   FFTW3d:hc2hc.obj
 0001:00128954       _fftwl_the_planner         10129954 f   FFTW3l:the-planner.obj
 0001:00128978       _fftwl_cleanup             10129978 f   FFTW3l:the-planner.obj
 0001:00128994       _fftwl_mkapiplan           10129994 f   FFTW3l:apiplan.obj
 0001:00128a54       _fftwl_destroy_plan        10129a54 f   FFTW3l:apiplan.obj
 0001:00128a80       _fftwl_execute_dft_c2r     10129a80 f   FFTW3l:execute-dft-c2r.obj
 0001:00128a80       _fftw_execute_dft_c2r      10129a80 f   FFTW3l:execute-dft-c2r.obj
 0001:00128ab4       _fftwl_execute_dft_r2c     10129ab4 f   FFTW3l:execute-dft-r2c.obj
 0001:00128ab4       _fftw_execute_dft_r2c      10129ab4 f   FFTW3l:execute-dft-r2c.obj
 0001:00128ae8       _fftw_execute_r2r          10129ae8 f   FFTW3l:execute-r2r.obj
 0001:00128ae8       _fftwf_execute_r2r         10129ae8 f   FFTW3l:execute-r2r.obj
 0001:00128ae8       _fftwl_execute_r2r         10129ae8 f   FFTW3l:execute-r2r.obj
 0001:00128b10       _fftwl_execute_split_dft   10129b10 f   FFTW3l:execute-split-dft.obj
 0001:00128b10       _fftw_execute_split_dft    10129b10 f   FFTW3l:execute-split-dft.obj
 0001:00128b10       _fftwf_execute_split_dft   10129b10 f   FFTW3l:execute-split-dft.obj
 0001:00128b54       _fftwl_export_wisdom       10129b54 f   FFTW3l:export-wisdom.obj
 0001:00128b90       _fftwl_export_wisdom_to_file 10129b90 f   FFTW3l:export-wisdom-to-file.obj
 0001:00128c10       _fftwl_export_wisdom_to_string 10129c10 f   FFTW3l:export-wisdom-to-string.obj
 0001:00128c68       _fftwl_flops               10129c68 f   FFTW3l:flops.obj
 0001:00128c68       _fftw_flops                10129c68 f   FFTW3l:flops.obj
 0001:00128c68       _fftwf_flops               10129c68 f   FFTW3l:flops.obj
 0001:00128c8c       _fftwl_forget_wisdom       10129c8c f   FFTW3l:forget-wisdom.obj
 0001:00128ca0       _fftwl_fprint_plan         10129ca0 f   FFTW3l:print-plan.obj
 0001:00128cc4       _fftwl_print_plan          10129cc4 f   FFTW3l:print-plan.obj
 0001:00128cd8       _fftwl_malloc              10129cd8 f   FFTW3l:alloc.obj
 0001:00128ce4       _fftwl_malloc_plain        10129ce4 f   FFTW3l:alloc.obj
 0001:00128d1c       _fftwl_ifree               10129d1c f   FFTW3l:alloc.obj
 0001:00128d1c       _fftwl_free                10129d1c f   FFTW3l:alloc.obj
 0001:00128d28       _fftwl_ifree0              10129d28 f   FFTW3l:alloc.obj
 0001:00128d38       _fftwl_import_wisdom       10129d38 f   FFTW3l:import-wisdom.obj
 0001:00128da4       _fftwl_import_wisdom_from_file 10129da4 f   FFTW3l:import-wisdom-from-file.obj
 0001:00128de8       _fftwl_import_wisdom_from_string 10129de8 f   FFTW3l:import-wisdom-from-string.obj
 0001:00128e80       _fftwl_mkprinter_file      10129e80 f   FFTW3l:mkprinter-file.obj
 0001:00128ea8       _fftwl_mkplan              10129ea8 f   FFTW3l:plan.obj
 0001:00128edc       _fftwl_plan_destroy_internal 10129edc f   FFTW3l:plan.obj
 0001:00128f08       _fftwl_plan_dft            10129f08 f   FFTW3l:plan-dft.obj
 0001:00128f38       _fftwl_plan_dft_1d         10129f38 f   FFTW3l:plan-dft-1d.obj
 0001:00128f58       _fftwl_plan_dft_2d         10129f58 f   FFTW3l:plan-dft-2d.obj
 0001:00128f8c       _fftwl_plan_dft_3d         10129f8c f   FFTW3l:plan-dft-3d.obj
 0001:00128fc8       _fftwl_plan_dft_c2r        10129fc8 f   FFTW3l:plan-dft-c2r.obj
 0001:00128ff4       _fftwl_plan_dft_c2r_1d     10129ff4 f   FFTW3l:plan-dft-c2r-1d.obj
 0001:00129010       _fftwl_plan_dft_c2r_2d     1012a010 f   FFTW3l:plan-dft-c2r-2d.obj
 0001:00129040       _fftwl_plan_dft_c2r_3d     1012a040 f   FFTW3l:plan-dft-c2r-3d.obj
 0001:00129078       _fftwl_plan_dft_r2c        1012a078 f   FFTW3l:plan-dft-r2c.obj
 0001:001290a4       _fftwl_plan_dft_r2c_1d     1012a0a4 f   FFTW3l:plan-dft-r2c-1d.obj
 0001:001290c0       _fftwl_plan_dft_r2c_2d     1012a0c0 f   FFTW3l:plan-dft-r2c-2d.obj
 0001:001290f0       _fftwl_plan_dft_r2c_3d     1012a0f0 f   FFTW3l:plan-dft-r2c-3d.obj
 0001:00129128       _fftwl_plan_guru_dft       1012a128 f   FFTW3l:plan-guru-dft.obj
 0001:001291dc       _fftwl_plan_guru_dft_c2r   1012a1dc f   FFTW3l:plan-guru-dft-c2r.obj
 0001:00129278       _fftwl_plan_guru_dft_r2c   1012a278 f   FFTW3l:plan-guru-dft-r2c.obj
 0001:00129304       _fftwl_plan_guru_r2r       1012a304 f   FFTW3l:plan-guru-r2r.obj
 0001:0012938c       _fftwl_plan_guru_split_dft 1012a38c f   FFTW3l:plan-guru-split-dft.obj
 0001:00129434       _fftwl_plan_guru_split_dft_c2r 1012a434 f   FFTW3l:plan-guru-split-dft-c2r.obj
 0001:001294bc       _fftwl_plan_guru_split_dft_r2c 1012a4bc f   FFTW3l:plan-guru-split-dft-r2c.obj
 0001:00129530       _fftwl_plan_many_dft       1012a530 f   FFTW3l:plan-many-dft.obj
 0001:00129610       _fftwl_plan_many_dft_c2r   1012a610 f   FFTW3l:plan-many-dft-c2r.obj
 0001:00129724       _fftwl_plan_many_dft_r2c   1012a724 f   FFTW3l:plan-many-dft-r2c.obj
 0001:00129828       _fftwl_plan_many_r2r       1012a828 f   FFTW3l:plan-many-r2r.obj
 0001:001298d4       _fftwl_plan_r2r            1012a8d4 f   FFTW3l:plan-r2r.obj
 0001:00129904       _fftwl_plan_r2r_1d         1012a904 f   FFTW3l:plan-r2r-1d.obj
 0001:00129928       _fftwl_plan_r2r_2d         1012a928 f   FFTW3l:plan-r2r-2d.obj
 0001:0012996c       _fftwl_plan_r2r_3d         1012a96c f   FFTW3l:plan-r2r-3d.obj
 0001:00129d0c       _fftwl_mkprinter           1012ad0c f   FFTW3l:print.obj
 0001:00129d40       _fftwl_printer_destroy     1012ad40 f   FFTW3l:print.obj
 0001:00129e80       _fftwl_problem_dft_p       1012ae80 f   FFTW3l:problem.obj
 0001:00129e94       _fftwl_mkproblem_dft       1012ae94 f   FFTW3l:problem.obj
 0001:00129efc       _fftwl_mkproblem_dft_d     1012aefc f   FFTW3l:problem.obj
 0001:0012a08c       _fftwl_problem_rdft2_p     1012b08c f   FFTW3l:problem2.obj
 0001:0012a0a0       _fftwl_mkproblem_rdft2     1012b0a0 f   FFTW3l:problem2.obj
 0001:0012a188       _fftwl_mkproblem_rdft2_d   1012b188 f   FFTW3l:problem2.obj
 0001:0012a3fc       _fftwl_rdft_zerotens       1012b3fc f   FFTW3l:problem.obj
 0001:0012a414       _fftwl_rdft_kind_str       1012b414 f   FFTW3l:problem.obj
 0001:0012a4bc       _fftwl_problem_rdft_p      1012b4bc f   FFTW3l:problem.obj
 0001:0012a508       _fftwl_mkproblem_rdft      1012b508 f   FFTW3l:problem.obj
 0001:0012a7b0       _fftwl_mkproblem_rdft_d    1012b7b0 f   FFTW3l:problem.obj
 0001:0012a7e0       _fftwl_mkproblem_rdft_1    1012b7e0 f   FFTW3l:problem.obj
 0001:0012a800       _fftwl_mkproblem_rdft_1_d  1012b800 f   FFTW3l:problem.obj
 0001:0012b508       _fftwl_mkplanner           1012c508 f   FFTW3l:planner.obj
 0001:0012b574       _fftwl_planner_destroy     1012c574 f   FFTW3l:planner.obj
 0001:0012b5d4       _fftwl_configure_planner   1012c5d4 f   FFTW3l:configure.obj
 0001:0012b658       _fftwl_mapflags            1012c658 f   FFTW3l:mapflags.obj
 0001:0012b81c       _fftwl_mkproblem           1012c81c f   FFTW3l:problem.obj
 0001:0012bb40       _fftwl_mkscanner           1012cb40 f   FFTW3l:scan.obj
 0001:0012bb68       _fftwl_scanner_destroy     1012cb68 f   FFTW3l:scan.obj
 0001:0012bb68       _fftwl_tensor_destroy      1012cb68 f   FFTW3l:scan.obj
 0001:0012bb74       _fftwl_ops_zero            1012cb74 f   FFTW3l:ops.obj
 0001:0012bb8c       _fftwl_ops_other           1012cb8c f   FFTW3l:ops.obj
 0001:0012bbb0       _fftwl_mktensor_iodims     1012cbb0 f   FFTW3l:mktensor-iodims.obj
 0001:0012bca8       _fftwl_guru_kosherp        1012cca8 f   FFTW3l:mktensor-iodims.obj
 0001:0012bce0       _fftwl_map_r2r_kind        1012cce0 f   FFTW3l:map-r2r-kind.obj
 0001:0012bd6c       _fftwl_mktensor_rowmajor   1012cd6c f   FFTW3l:mktensor-rowmajor.obj
 0001:0012be18       _fftwl_many_kosherp        1012ce18 f   FFTW3l:mktensor-rowmajor.obj
 0001:0012be40       _fftwl_mktensor_0d         1012ce40 f   FFTW3l:tensor1.obj
 0001:0012be4c       _fftwl_mktensor_1d         1012ce4c f   FFTW3l:tensor1.obj
 0001:0012be6c       _fftwl_rdft2_pad           1012ce6c f   FFTW3l:rdft2-pad.obj
 0001:0012befc       _fftwl_mktensor            1012cefc f   FFTW3l:tensor.obj
 0001:0012bf30       _fftwl_tensor_md5          1012cf30 f   FFTW3l:tensor.obj
 0001:0012bfb4       _fftwl_tensor_tornk1       1012cfb4 f   FFTW3l:tensor.obj
 0001:0012bfb4       _fftwf_tensor_tornk1       1012cfb4 f   FFTW3l:tensor.obj
 0001:0012bfb4       _fftw_tensor_tornk1        1012cfb4 f   FFTW3l:tensor.obj
 0001:0012bffc       _fftwl_tensor_destroy2     1012cffc f   FFTW3l:tensor8.obj
 0001:0012c014       _fftwl_tensor_destroy4     1012d014 f   FFTW3l:tensor8.obj
 0001:0012c034       _fftwl_md5putb             1012d034 f   FFTW3l:md5-1.obj
 0001:0012c080       _fftwl_md5puts             1012d080 f   FFTW3l:md5-1.obj
 0001:0012c0a4       _fftwl_md5unsigned         1012d0a4 f   FFTW3l:md5-1.obj
 0001:0012c0a4       _fftwl_md5int              1012d0a4 f   FFTW3l:md5-1.obj
 0001:0012c0a4       _fftwl_md5ptrdiff          1012d0a4 f   FFTW3l:md5-1.obj
 0001:0012c0b8       _fftwl_alignment_of        1012d0b8 f   FFTW3l:align.obj
 0001:0012c1b4       _fftwl_tensor_copy         1012d1b4 f   FFTW3l:tensor5.obj
 0001:0012c1dc       _fftwl_tensor_copy_inplace 1012d1dc f   FFTW3l:tensor5.obj
 0001:0012c244       _fftwl_tensor_copy_except  1012d244 f   FFTW3l:tensor5.obj
 0001:0012c294       _fftwl_tensor_copy_sub     1012d294 f   FFTW3l:tensor5.obj
 0001:0012c2cc       _fftwl_tensor_append       1012d2cc f   FFTW3l:tensor5.obj
 0001:0012c558       _fftwl_dft_zerotens        1012d558 f   FFTW3l:zero.obj
 0001:0012c574       _fftwl_tensor_compress     1012d574 f   FFTW3l:tensor7.obj
 0001:0012c62c       _fftwl_tensor_compress_contiguous 1012d62c f   FFTW3l:tensor7.obj
 0001:0012c7cc       _fftwl_tensor_split        1012d7cc f   FFTW3l:tensor7.obj
 0001:0012c800       _fftwl_mksolver            1012d800 f   FFTW3l:solver.obj
 0001:0012c818       _fftwl_solver_destroy      1012d818 f   FFTW3l:solver.obj
 0001:0012cb70       _fftwl_md5putc             1012db70 f   FFTW3l:md5.obj
 0001:0012cba0       _fftwl_md5end              1012dba0 f   FFTW3l:md5.obj
 0001:0012cc04       _fftwl_power_mod           1012dc04 f   FFTW3l:primes.obj
 0001:0012cc84       _fftwl_find_generator      1012dc84 f   FFTW3l:primes.obj
 0001:0012cd78       _fftwl_measure_execution_time 1012dd78 f   FFTW3l:timer.obj
 0001:0012ce54       _fftwl_dft_conf_standard   1012de54 f   FFTW3l:conf.obj
 0001:0012ce80       _fftwl_rdft_conf_standard  1012de80 f   FFTW3l:conf.obj
 0001:0012ceb8       _fftwl_reodft_conf_standard 1012deb8 f   FFTW3l:conf.obj
 0001:0012d188       _fftwl_dft_indirect_register 1012e188 f   FFTW3l:indirect.obj
 0001:0012d38c       _fftwl_dft_rank0_register  1012e38c f   FFTW3l:rank0.obj
 0001:0012d648       _fftwl_dft_rank_geq2_register 1012e648 f   FFTW3l:rank-geq2.obj
 0001:0012d9c0       _fftwl_dft_vrank_geq1_register 1012e9c0 f   FFTW3l:vrank-geq1.obj
 0001:0012dd28       _fftwl_dft_vrank2_transpose_register 1012ed28 f   FFTW3l:vrank2-transpose.obj
 0001:0012e238       _fftwl_dft_vrank3_transpose_register 1012f238 f   FFTW3l:vrank3-transpose.obj
 0001:0012e888       _fftwl_dft_buffered_register 1012f888 f   FFTW3l:buffered.obj
 0001:0012ed90       _fftwl_dft_generic_register 1012fd90 f   FFTW3l:generic.obj
 0001:0012f920       _fftwl_dft_rader_register  10130920 f   FFTW3l:rader.obj
 0001:0012f9f0       _fftwl_dft_nop_register    101309f0 f   FFTW3l:nop.obj
 0001:0012fcb0       _fftwl_rdft_indirect_register 10130cb0 f   FFTW3l:indirect.obj
 0001:0012fdf4       _fftwl_rdft_rank0_register 10130df4 f   FFTW3l:rank0.obj
 0001:001300e8       _fftwl_rdft_vrank_geq1_register 101310e8 f   FFTW3l:vrank-geq1.obj
 0001:001301c0       _fftwl_rdft_nop_register   101311c0 f   FFTW3l:nop.obj
 0001:001306c0       _fftwl_rdft_buffered_register 101316c0 f   FFTW3l:buffered.obj
 0001:00131a18       _fftwl_rdft_rader_hc2hc_register 10132a18 f   FFTW3l:rader-hc2hc.obj
 0001:00132754       _fftwl_rdft_generic_register 10133754 f   FFTW3l:generic.obj
 0001:001329b0       _fftwl_rdft_rank_geq2_register 101339b0 f   FFTW3l:rank-geq2.obj
 0001:00132c68       _fftwl_dft_r2hc_register   10133c68 f   FFTW3l:dft-r2hc.obj
 0001:00132f38       _fftwl_rdft_dht_register   10133f38 f   FFTW3l:rdft-dht.obj
 0001:00133108       _fftwl_dht_r2hc_register   10134108 f   FFTW3l:dht-r2hc.obj
 0001:00133bf8       _fftwl_dht_rader_register  10134bf8 f   FFTW3l:dht-rader.obj
 0001:00133f18       _fftwl_rdft2_vrank_geq1_register 10134f18 f   FFTW3l:vrank-geq1-rdft2.obj
 0001:00134004       _fftwl_rdft2_nop_register  10135004 f   FFTW3l:nop2.obj
 0001:00134498       _fftwl_rdft2_rank0_register 10135498 f   FFTW3l:rank0-rdft2.obj
 0001:00135444       _fftwl_rdft2_buffered_register 10136444 f   FFTW3l:buffered2.obj
 0001:001357a4       _fftwl_rdft2_rank_geq2_register 101367a4 f   FFTW3l:rank-geq2-rdft2.obj
 0001:0013629c       _fftwl_rdft2_radix2_register 1013729c f   FFTW3l:rdft2-radix2.obj
 0001:00136730       _fftwl_redft00e_r2hc_pad_register 10137730 f   FFTW3l:redft00e-r2hc-pad.obj
 0001:00136bd4       _fftwl_rodft00e_r2hc_pad_register 10137bd4 f   FFTW3l:rodft00e-r2hc-pad.obj
 0001:00137960       _fftwl_reodft010e_r2hc_register 10138960 f   FFTW3l:reodft010e-r2hc.obj
 0001:0013854c       _fftwl_reodft11e_radix2_r2hc_register 1013954c f   FFTW3l:reodft11e-radix2.obj
 0001:00139b00       _fftwl_reodft11e_r2hc_odd_register 1013ab00 f   FFTW3l:reodft11e-r2hc-odd.obj
 0001:00139b14       _fftwf_tensor_min_istride  1013ab14 f   FFTW3l:tensor4.obj
 0001:00139b14       _fftwl_tensor_min_istride  1013ab14 f   FFTW3l:tensor4.obj
 0001:00139b14       _fftw_tensor_min_istride   1013ab14 f   FFTW3l:tensor4.obj
 0001:00139b8c       _fftwf_tensor_min_stride   1013ab8c f   FFTW3l:tensor4.obj
 0001:00139b8c       _fftwl_tensor_min_stride   1013ab8c f   FFTW3l:tensor4.obj
 0001:00139b8c       _fftw_tensor_min_stride    1013ab8c f   FFTW3l:tensor4.obj
 0001:00139bb0       _fftwl_dft_solve           1013abb0 f   FFTW3l:solve.obj
 0001:00139cd8       _fftwl_pickdim             1013acd8 f   FFTW3l:pickdim.obj
 0001:00139d5c       _fftwf_imax                1013ad5c f   FFTW3l:minmax.obj
 0001:00139d5c       _fftwl_imax                1013ad5c f   FFTW3l:minmax.obj
 0001:00139d5c       _fftw_imax                 1013ad5c f   FFTW3l:minmax.obj
 0001:00139d70       _fftw_imin                 1013ad70 f   FFTW3l:minmax.obj
 0001:00139d70       _fftwl_imin                1013ad70 f   FFTW3l:minmax.obj
 0001:00139d70       _fftwf_imin                1013ad70 f   FFTW3l:minmax.obj
 0001:00139d84       _fftwl_transposable        1013ad84 f   FFTW3l:transpose.obj
 0001:00139de4       _fftwl_transpose_dims      1013ade4 f   FFTW3l:transpose.obj
 0001:00139e40       _fftwl_transpose_simplep   1013ae40 f   FFTW3l:transpose.obj
 0001:00139e8c       _fftwl_transpose_slowp     1013ae8c f   FFTW3l:transpose.obj
 0001:0013a7e0       _fftwl_transpose           1013b7e0 f   FFTW3l:transpose.obj
 0001:0013a990       _fftwl_transpose_slow      1013b990 f   FFTW3l:transpose.obj
 0001:0013ad04       _fftwl_mktensor_2d         1013bd04 f   FFTW3l:tensor2.obj
 0001:0013ae0c       _fftwl_twiddle_length      1013be0c f   FFTW3l:twiddle.obj
 0001:0013afc4       _fftwl_mktwiddle           1013bfc4 f   FFTW3l:twiddle.obj
 0001:0013b04c       _fftwl_twiddle_destroy     1013c04c f   FFTW3l:twiddle.obj
 0001:0013b0a4       _fftwl_twiddle_awake       1013c0a4 f   FFTW3l:twiddle.obj
 0001:0013b0d4       _fftwl_rader_tl_insert     1013c0d4 f   FFTW3l:rader.obj
 0001:0013b10c       _fftwf_rader_tl_find       1013c10c f   FFTW3l:rader.obj
 0001:0013b10c       _fftwl_rader_tl_find       1013c10c f   FFTW3l:rader.obj
 0001:0013b10c       _fftw_rader_tl_find        1013c10c f   FFTW3l:rader.obj
 0001:0013b140       _fftwl_rader_tl_delete     1013c140 f   FFTW3l:rader.obj
 0001:0013b19c       _fftwl_cos2pi              1013c19c f   FFTW3l:trig.obj
 0001:0013b1c4       _fftwl_sin2pi              1013c1c4 f   FFTW3l:trig.obj
 0001:0013b1ec       _fftwl_tan2pi              1013c1ec f   FFTW3l:trig.obj
 0001:0013b1f4       _fftwl_dft_rader_mkomega   1013c1f4 f   FFTW3l:rader-omega.obj
 0001:0013b324       _fftwl_dft_rader_free_omega 1013c324 f   FFTW3l:rader-omega.obj
 0001:0013b470       _fftwl_codelet_q1_2        1013c470 f   FFTW3l:q1_2.obj
 0001:0013bb70       _fftwl_codelet_q1_4        1013cb70 f   FFTW3l:q1_4.obj
 0001:0013de44       _fftwl_codelet_q1_8        1013ee44 f   FFTW3l:q1_8.obj
 0001:0013e260       _fftwl_codelet_q1_3        1013f260 f   FFTW3l:q1_3.obj
 0001:0013f050       _fftwl_codelet_q1_5        10140050 f   FFTW3l:q1_5.obj
 0001:001402e4       _fftwl_codelet_q1_6        101412e4 f   FFTW3l:q1_6.obj
 0001:0014038c       _fftwl_codelet_n1_2        1014138c f   FFTW3l:n1_2.obj
 0001:001404a0       _fftwl_codelet_n1_3        101414a0 f   FFTW3l:n1_3.obj
 0001:001405ec       _fftwl_codelet_n1_4        101415ec f   FFTW3l:n1_4.obj
 0001:00140844       _fftwl_codelet_n1_5        10141844 f   FFTW3l:n1_5.obj
 0001:00140ac8       _fftwl_codelet_n1_6        10141ac8 f   FFTW3l:n1_6.obj
 0001:00140f04       _fftwl_codelet_n1_7        10141f04 f   FFTW3l:n1_7.obj
 0001:00141288       _fftwl_codelet_n1_8        10142288 f   FFTW3l:n1_8.obj
 0001:00141820       _fftwl_codelet_n1_9        10142820 f   FFTW3l:n1_9.obj
 0001:00141de0       _fftwl_codelet_n1_10       10142de0 f   FFTW3l:n1_10.obj
 0001:0014274c       _fftwl_codelet_n1_11       1014374c f   FFTW3l:n1_11.obj
 0001:00142d4c       _fftwl_codelet_n1_12       10143d4c f   FFTW3l:n1_12.obj
 0001:00143880       _fftwl_codelet_n1_13       10144880 f   FFTW3l:n1_13.obj
 0001:001441e4       _fftwl_codelet_n1_14       101451e4 f   FFTW3l:n1_14.obj
 0001:00144cf4       _fftwl_codelet_n1_15       10145cf4 f   FFTW3l:n1_15.obj
 0001:00145680       _fftwl_codelet_n1_16       10146680 f   FFTW3l:n1_16.obj
 0001:00145eac       _fftwl_codelet_m1_16       10146eac f   FFTW3l:m1_16.obj
 0001:001471c0       _fftwl_codelet_m1_32       101481c0 f   FFTW3l:m1_32.obj
 0001:0014aa08       _fftwl_codelet_m1_64       1014ba08 f   FFTW3l:m1_64.obj
 0001:0014aab0       _fftwl_codelet_t1_2        1014bab0 f   FFTW3l:t1_2.obj
 0001:0014abe0       _fftwl_codelet_t1_3        1014bbe0 f   FFTW3l:t1_3.obj
 0001:0014ad80       _fftwl_codelet_t1_4        1014bd80 f   FFTW3l:t1_4.obj
 0001:0014b038       _fftwl_codelet_t1_5        1014c038 f   FFTW3l:t1_5.obj
 0001:0014b314       _fftwl_codelet_t1_6        1014c314 f   FFTW3l:t1_6.obj
 0001:0014b788       _fftwl_codelet_t1_7        1014c788 f   FFTW3l:t1_7.obj
 0001:0014bb84       _fftwl_codelet_t1_8        1014cb84 f   FFTW3l:t1_8.obj
 0001:0014c1d0       _fftwl_codelet_t1_9        1014d1d0 f   FFTW3l:t1_9.obj
 0001:0014c8c4       _fftwl_codelet_t1_10       1014d8c4 f   FFTW3l:t1_10.obj
 0001:0014d018       _fftwl_codelet_t1_12       1014e018 f   FFTW3l:t1_12.obj
 0001:0014dc2c       _fftwl_codelet_t1_15       1014ec2c f   FFTW3l:t1_15.obj
 0001:0014e748       _fftwl_codelet_t1_16       1014f748 f   FFTW3l:t1_16.obj
 0001:00150234       _fftwl_codelet_t1_32       10151234 f   FFTW3l:t1_32.obj
 0001:00154150       _fftwl_codelet_t1_64       10155150 f   FFTW3l:t1_64.obj
 0001:001542f8       _fftwl_codelet_t2_4        101552f8 f   FFTW3l:t2_4.obj
 0001:00154840       _fftwl_codelet_t2_8        10155840 f   FFTW3l:t2_8.obj
 0001:00155540       _fftwl_codelet_t2_16       10156540 f   FFTW3l:t2_16.obj
 0001:001577d8       _fftwl_codelet_t2_32       101587d8 f   FFTW3l:t2_32.obj
 0001:0015c7a0       _fftwl_codelet_t2_64       1015d7a0 f   FFTW3l:t2_64.obj
 0001:0015c7b8       _fftwl_rdft_solve          1015d7b8 f   FFTW3l:solve.obj
 0001:0015c7d0       _fftwl_rdft2_inplace_strides 1015d7d0 f   FFTW3l:rdft2-inplace-strides.obj
 0001:0015c960       _fftwl_mkplan_dft          1015d960 f   FFTW3l:plan2.obj
 0001:0015c960       _fftwl_mkplan_rdft         1015d960 f   FFTW3l:plan2.obj
 0001:0015c960       _fftwl_mkplan_rdft2        1015d960 f   FFTW3l:plan2.obj
 0001:0015c978       _fftwl_rdft2_solve         1015d978 f   FFTW3l:solve2.obj
 0001:0015cb90       _fftwl_codelet_e01_8       1015db90 f   FFTW3l:e01_8.obj
 0001:0015cdb4       _fftwl_codelet_e10_8       1015ddb4 f   FFTW3l:e10_8.obj
 0001:0015ce60       _fftwl_codelet_hc2r_3      1015de60 f   FFTW3l:hc2r_3.obj
 0001:0015cf40       _fftwl_codelet_hc2r_4      1015df40 f   FFTW3l:hc2r_4.obj
 0001:0015d08c       _fftwl_codelet_hc2r_5      1015e08c f   FFTW3l:hc2r_5.obj
 0001:0015d1d8       _fftwl_codelet_hc2r_6      1015e1d8 f   FFTW3l:hc2r_6.obj
 0001:0015d43c       _fftwl_codelet_hc2r_7      1015e43c f   FFTW3l:hc2r_7.obj
 0001:0015d62c       _fftwl_codelet_hc2r_8      1015e62c f   FFTW3l:hc2r_8.obj
 0001:0015d8ec       _fftwl_codelet_hc2r_9      1015e8ec f   FFTW3l:hc2r_9.obj
 0001:0015dbc4       _fftwl_codelet_hc2r_10     1015ebc4 f   FFTW3l:hc2r_10.obj
 0001:0015e0f8       _fftwl_codelet_hc2r_11     1015f0f8 f   FFTW3l:hc2r_11.obj
 0001:0015e440       _fftwl_codelet_hc2r_12     1015f440 f   FFTW3l:hc2r_12.obj
 0001:0015e9f0       _fftwl_codelet_hc2r_13     1015f9f0 f   FFTW3l:hc2r_13.obj
 0001:0015ef4c       _fftwl_codelet_hc2r_14     1015ff4c f   FFTW3l:hc2r_14.obj
 0001:0015f4e8       _fftwl_codelet_hc2r_15     101604e8 f   FFTW3l:hc2r_15.obj
 0001:0015f9f8       _fftwl_codelet_hc2r_16     101609f8 f   FFTW3l:hc2r_16.obj
 0001:00160660       _fftwl_codelet_hc2r_32     10161660 f   FFTW3l:hc2r_32.obj
 0001:00161050       _fftwl_codelet_mhc2r_32    10162050 f   FFTW3l:mhc2r_32.obj
 0001:00162af8       _fftwl_codelet_mhc2r_64    10163af8 f   FFTW3l:mhc2r_64.obj
 0001:00166c3c       _fftwl_codelet_mhc2r_128   10167c3c f   FFTW3l:mhc2r_128.obj
 0001:00166d10       _fftwl_codelet_hb_2        10167d10 f   FFTW3l:hb_2.obj
 0001:00166e9c       _fftwl_codelet_hb_3        10167e9c f   FFTW3l:hb_3.obj
 0001:00167098       _fftwl_codelet_hb_4        10168098 f   FFTW3l:hb_4.obj
 0001:00167394       _fftwl_codelet_hb_5        10168394 f   FFTW3l:hb_5.obj
 0001:001676f4       _fftwl_codelet_hb_6        101686f4 f   FFTW3l:hb_6.obj
 0001:00167ca8       _fftwl_codelet_hb_7        10168ca8 f   FFTW3l:hb_7.obj
 0001:0016818c       _fftwl_codelet_hb_8        1016918c f   FFTW3l:hb_8.obj
 0001:00168920       _fftwl_codelet_hb_9        10169920 f   FFTW3l:hb_9.obj
 0001:001690a8       _fftwl_codelet_hb_10       1016a0a8 f   FFTW3l:hb_10.obj
 0001:001698c4       _fftwl_codelet_hb_12       1016a8c4 f   FFTW3l:hb_12.obj
 0001:0016a690       _fftwl_codelet_hb_15       1016b690 f   FFTW3l:hb_15.obj
 0001:0016b214       _fftwl_codelet_hb_16       1016c214 f   FFTW3l:hb_16.obj
 0001:0016d0cc       _fftwl_codelet_hb_32       1016e0cc f   FFTW3l:hb_32.obj
 0001:001716ec       _fftwl_codelet_hb_64       101726ec f   FFTW3l:hb_64.obj
 0001:001717f4       _fftwl_codelet_hc2rIII_2   101727f4 f   FFTW3l:hc2rIII_2.obj
 0001:0017189c       _fftwl_codelet_hc2rIII_3   1017289c f   FFTW3l:hc2rIII_3.obj
 0001:0017197c       _fftwl_codelet_hc2rIII_4   1017297c f   FFTW3l:hc2rIII_4.obj
 0001:00171ab8       _fftwl_codelet_hc2rIII_5   10172ab8 f   FFTW3l:hc2rIII_5.obj
 0001:00171c04       _fftwl_codelet_hc2rIII_6   10172c04 f   FFTW3l:hc2rIII_6.obj
 0001:00171e58       _fftwl_codelet_hc2rIII_7   10172e58 f   FFTW3l:hc2rIII_7.obj
 0001:00172088       _fftwl_codelet_hc2rIII_8   10173088 f   FFTW3l:hc2rIII_8.obj
 0001:0017233c       _fftwl_codelet_hc2rIII_9   1017333c f   FFTW3l:hc2rIII_9.obj
 0001:00172618       _fftwl_codelet_hc2rIII_10  10173618 f   FFTW3l:hc2rIII_10.obj
 0001:001729b8       _fftwl_codelet_hc2rIII_12  101739b8 f   FFTW3l:hc2rIII_12.obj
 0001:00172ee8       _fftwl_codelet_hc2rIII_15  10173ee8 f   FFTW3l:hc2rIII_15.obj
 0001:001734ac       _fftwl_codelet_hc2rIII_16  101744ac f   FFTW3l:hc2rIII_16.obj
 0001:00174260       _fftwl_codelet_hc2rIII_32  10175260 f   FFTW3l:hc2rIII_32.obj
 0001:00174d80       _fftwl_codelet_mhc2rIII_32 10175d80 f   FFTW3l:mhc2rIII_32.obj
 0001:00176c4c       _fftwl_codelet_mhc2rIII_64 10177c4c f   FFTW3l:mhc2rIII_64.obj
 0001:00176d80       _fftwl_codelet_r2hc_2      10177d80 f   FFTW3l:r2hc_2.obj
 0001:00176e2c       _fftwl_codelet_r2hc_3      10177e2c f   FFTW3l:r2hc_3.obj
 0001:00176efc       _fftwl_codelet_r2hc_4      10177efc f   FFTW3l:r2hc_4.obj
 0001:00177034       _fftwl_codelet_r2hc_5      10178034 f   FFTW3l:r2hc_5.obj
 0001:0017717c       _fftwl_codelet_r2hc_6      1017817c f   FFTW3l:r2hc_6.obj
 0001:001773ac       _fftwl_codelet_r2hc_7      101783ac f   FFTW3l:r2hc_7.obj
 0001:00177594       _fftwl_codelet_r2hc_8      10178594 f   FFTW3l:r2hc_8.obj
 0001:001778e8       _fftwl_codelet_r2hc_9      101788e8 f   FFTW3l:r2hc_9.obj
 0001:00177bbc       _fftwl_codelet_r2hc_10     10178bbc f   FFTW3l:r2hc_10.obj
 0001:00178024       _fftwl_codelet_r2hc_11     10179024 f   FFTW3l:r2hc_11.obj
 0001:00178368       _fftwl_codelet_r2hc_12     10179368 f   FFTW3l:r2hc_12.obj
 0001:001788c8       _fftwl_codelet_r2hc_13     101798c8 f   FFTW3l:r2hc_13.obj
 0001:00178dcc       _fftwl_codelet_r2hc_14     10179dcc f   FFTW3l:r2hc_14.obj
 0001:00179340       _fftwl_codelet_r2hc_15     1017a340 f   FFTW3l:r2hc_15.obj
 0001:00179870       _fftwl_codelet_r2hc_16     1017a870 f   FFTW3l:r2hc_16.obj
 0001:0017a4cc       _fftwl_codelet_r2hc_32     1017b4cc f   FFTW3l:r2hc_32.obj
 0001:0017aeac       _fftwl_codelet_mr2hc_32    1017beac f   FFTW3l:mr2hc_32.obj
 0001:0017c9dc       _fftwl_codelet_mr2hc_64    1017d9dc f   FFTW3l:mr2hc_64.obj
 0001:00180c98       _fftwl_codelet_mr2hc_128   10181c98 f   FFTW3l:mr2hc_128.obj
 0001:00180d68       _fftwl_codelet_hf_2        10181d68 f   FFTW3l:hf_2.obj
 0001:00180eec       _fftwl_codelet_hf_3        10181eec f   FFTW3l:hf_3.obj
 0001:001810cc       _fftwl_codelet_hf_4        101820cc f   FFTW3l:hf_4.obj
 0001:00181410       _fftwl_codelet_hf_5        10182410 f   FFTW3l:hf_5.obj
 0001:00181770       _fftwl_codelet_hf_6        10182770 f   FFTW3l:hf_6.obj
 0001:00181c9c       _fftwl_codelet_hf_7        10182c9c f   FFTW3l:hf_7.obj
 0001:00182138       _fftwl_codelet_hf_8        10183138 f   FFTW3l:hf_8.obj
 0001:0018286c       _fftwl_codelet_hf_9        1018386c f   FFTW3l:hf_9.obj
 0001:00183038       _fftwl_codelet_hf_10       10184038 f   FFTW3l:hf_10.obj
 0001:00183878       _fftwl_codelet_hf_12       10184878 f   FFTW3l:hf_12.obj
 0001:001845c0       _fftwl_codelet_hf_15       101855c0 f   FFTW3l:hf_15.obj
 0001:0018522c       _fftwl_codelet_hf_16       1018622c f   FFTW3l:hf_16.obj
 0001:00187028       _fftwl_codelet_hf_32       10188028 f   FFTW3l:hf_32.obj
 0001:0018b584       _fftwl_codelet_hf_64       1018c584 f   FFTW3l:hf_64.obj
 0001:0018b780       _fftwl_codelet_hf2_4       1018c780 f   FFTW3l:hf2_4.obj
 0001:0018bd30       _fftwl_codelet_hf2_8       1018cd30 f   FFTW3l:hf2_8.obj
 0001:0018cc20       _fftwl_codelet_hf2_16      1018dc20 f   FFTW3l:hf2_16.obj
 0001:0018f1a4       _fftwl_codelet_hf2_32      101901a4 f   FFTW3l:hf2_32.obj
 0001:00194764       _fftwl_codelet_hf2_64      10195764 f   FFTW3l:hf2_64.obj
 0001:00194844       _fftwl_codelet_r2hcII_2    10195844 f   FFTW3l:r2hcII_2.obj
 0001:001948e8       _fftwl_codelet_r2hcII_3    101958e8 f   FFTW3l:r2hcII_3.obj
 0001:001949b8       _fftwl_codelet_r2hcII_4    101959b8 f   FFTW3l:r2hcII_4.obj
 0001:00194ae0       _fftwl_codelet_r2hcII_5    10195ae0 f   FFTW3l:r2hcII_5.obj
 0001:00194c34       _fftwl_codelet_r2hcII_6    10195c34 f   FFTW3l:r2hcII_6.obj
 0001:00194e40       _fftwl_codelet_r2hcII_7    10195e40 f   FFTW3l:r2hcII_7.obj
 0001:00195078       _fftwl_codelet_r2hcII_8    10196078 f   FFTW3l:r2hcII_8.obj
 0001:0019540c       _fftwl_codelet_r2hcII_9    1019640c f   FFTW3l:r2hcII_9.obj
 0001:001956d4       _fftwl_codelet_r2hcII_10   101966d4 f   FFTW3l:r2hcII_10.obj
 0001:00195a58       _fftwl_codelet_r2hcII_12   10196a58 f   FFTW3l:r2hcII_12.obj
 0001:00195ff0       _fftwl_codelet_r2hcII_15   10196ff0 f   FFTW3l:r2hcII_15.obj
 0001:00196588       _fftwl_codelet_r2hcII_16   10197588 f   FFTW3l:r2hcII_16.obj
 0001:00197410       _fftwl_codelet_r2hcII_32   10198410 f   FFTW3l:r2hcII_32.obj
 0001:00198074       _fftwl_codelet_mr2hcII_32  10199074 f   FFTW3l:mr2hcII_32.obj
 0001:0019a030       _fftwl_codelet_mr2hcII_64  1019b030 f   FFTW3l:mr2hcII_64.obj
 0001:0019a048       _fftwl_sincos              1019b048 f   FFTW3l:trig1.obj
 0001:0019a104       _fftwl_kdft_difsq_register 1019b104 f   FFTW3l:kdft-difsq.obj
 0001:0019a120       _fftwl_kdft_register       1019b120 f   FFTW3l:kdft.obj
 0001:0019a13c       _fftwl_kdft_dit_register   1019b13c f   FFTW3l:kdft-dit.obj
 0001:0019a1c4       _fftwl_kr2r_register       1019b1c4 f   FFTW3l:kr2r.obj
 0001:0019a1e0       _fftwl_khc2r_register      1019b1e0 f   FFTW3l:khc2r.obj
 0001:0019a214       _fftwl_khc2hc_dif_register 1019b214 f   FFTW3l:khc2hc-dif.obj
 0001:0019a2a8       _fftwl_kr2hc_register      1019b2a8 f   FFTW3l:kr2hc.obj
 0001:0019a2dc       _fftwl_khc2hc_dit_register 1019b2dc f   FFTW3l:khc2hc-dit.obj
 0001:0019a4b8       _fftwl_mksolver_dft_ct_ditf 1019b4b8 f   FFTW3l:ct-ditf.obj
 0001:0019a668       _fftwl_mksolver_dft_direct 1019b668 f   FFTW3l:direct.obj
 0001:0019a8e0       _fftwl_mksolver_dft_ct_dit 1019b8e0 f   FFTW3l:ct-dit.obj
 0001:0019adb0       _fftwl_mksolver_dft_ct_ditbuf 1019bdb0 f   FFTW3l:ct-ditbuf.obj
 0001:0019b1cc       _fftwl_mksolver_rdft_r2hc_direct 1019c1cc f   FFTW3l:direct.obj
 0001:0019b200       _fftwl_mksolver_rdft_hc2r_direct 1019c200 f   FFTW3l:direct.obj
 0001:0019b234       _fftwl_mksolver_rdft_r2r_direct 1019c234 f   FFTW3l:direct.obj
 0001:0019b5ec       _fftwl_mksolver_rdft2_r2hc_direct 1019c5ec f   FFTW3l:direct2.obj
 0001:0019b620       _fftwl_mksolver_rdft2_hc2r_direct 1019c620 f   FFTW3l:direct2.obj
 0001:0019b88c       _fftwl_mksolver_rdft_hc2hc_dif 1019c88c f   FFTW3l:hc2hc-dif.obj
 0001:0019bee0       _fftwl_mksolver_rdft_hc2hc_ditbuf 1019cee0 f   FFTW3l:hc2hc-buf.obj
 0001:0019bf18       _fftwl_mksolver_rdft_hc2hc_difbuf 1019cf18 f   FFTW3l:hc2hc-buf.obj
 0001:0019c270       _fftwl_mksolver_rdft_hc2hc_dit 1019d270 f   FFTW3l:hc2hc-dit.obj
 0001:0019c314       _fftwl_dft_ct_applicable   1019d314 f   FFTW3l:ct.obj
 0001:0019c35c       _fftwl_mkplan_dft_ct       1019d35c f   FFTW3l:ct.obj
 0001:0019c42c       _fftwl_mksolver_dft_ct     1019d42c f   FFTW3l:ct.obj
 0001:0019c42c       _fftwl_mksolver_rdft_hc2hc 1019d42c f   FFTW3l:ct.obj
 0001:0019c450       _fftwl_dft_mkcld_dit       1019d450 f   FFTW3l:ct.obj
 0001:0019c5bc       _fftwl_rdft_hc2hc_applicable 1019d5bc f   FFTW3l:hc2hc.obj
 0001:0019c614       _fftwl_mkplan_rdft_hc2hc   1019d614 f   FFTW3l:hc2hc.obj
 0001:0019c7bc       _fftwl_rdft_mkcldrn_dit    1019d7bc f   FFTW3l:hc2hc.obj
 0001:0019c8b4       _fftwl_rdft_mkcldrn_dif    1019d8b4 f   FFTW3l:hc2hc.obj
 0001:0019c9b0       _fflush                    1019d9b0 f   msvcrt:MSVCRT.dll
 0001:0019c9b6       _fprintf                   1019d9b6 f   msvcrt:MSVCRT.dll
 0001:0019c9bc       _exit                      1019d9bc f   msvcrt:MSVCRT.dll
 0001:0019c9d0       __chkstk                   1019d9d0 f   msvcrt:chkstk.obj
 0001:0019c9d0       __alloca_probe             1019d9d0 f   msvcrt:chkstk.obj
 0001:0019ca00       _fread                     1019da00 f   msvcrt:MSVCRT.dll
 0001:0019ca06       _fwrite                    1019da06 f   msvcrt:MSVCRT.dll
 0001:0019ca0c       _sprintf                   1019da0c f   msvcrt:MSVCRT.dll
 0001:0019ca12       _qsort                     1019da12 f   msvcrt:MSVCRT.dll
 0001:0019ca20       __allrem                   1019da20 f   msvcrt:llrem.obj
 0001:0019cad2       _clock                     1019dad2 f   msvcrt:MSVCRT.dll
 0001:0019cae0       __allmul                   1019dae0 f   msvcrt:llmul.obj
 0001:0019cb14       _signal                    1019db14 f   msvcrt:MSVCRT.dll
 0001:0019cb1a       __setjmp3                  1019db1a f   msvcrt:MSVCRT.dll
 0001:0019cb20       _longjmp                   1019db20 f   msvcrt:MSVCRT.dll
 0002:00000000       __imp__DisableThreadLibraryCalls@4 1019e000     kernel32:KERNEL32.dll
 0002:00000004       \177KERNEL32_NULL_THUNK_DATA 1019e004     kernel32:KERNEL32.dll
 0002:00000008       __imp___adjust_fdiv        1019e008     msvcrt:MSVCRT.dll
 0002:0000000c       __imp__malloc              1019e00c     msvcrt:MSVCRT.dll
 0002:00000010       __imp___initterm           1019e010     msvcrt:MSVCRT.dll
 0002:00000014       __imp__fprintf             1019e014     msvcrt:MSVCRT.dll
 0002:00000018       __imp__fflush              1019e018     msvcrt:MSVCRT.dll
 0002:0000001c       __imp__free                1019e01c     msvcrt:MSVCRT.dll
 0002:00000020       __imp__exit                1019e020     msvcrt:MSVCRT.dll
 0002:00000024       __imp__fread               1019e024     msvcrt:MSVCRT.dll
 0002:00000028       __imp__fwrite              1019e028     msvcrt:MSVCRT.dll
 0002:0000002c       __imp__sprintf             1019e02c     msvcrt:MSVCRT.dll
 0002:00000030       __imp__qsort               1019e030     msvcrt:MSVCRT.dll
 0002:00000034       __imp__clock               1019e034     msvcrt:MSVCRT.dll
 0002:00000038       __imp__signal              1019e038     msvcrt:MSVCRT.dll
 0002:0000003c       __imp___setjmp3            1019e03c     msvcrt:MSVCRT.dll
 0002:00000040       __imp__longjmp             1019e040     msvcrt:MSVCRT.dll
 0002:00000044       __iob                      1019e044     msvcrt:MSVCRT.dll
 0002:00000044       __imp___iob                1019e044     msvcrt:MSVCRT.dll
 0002:00000048       \177MSVCRT_NULL_THUNK_DATA 1019e048     msvcrt:MSVCRT.dll
 0002:0000004c       __IMPORT_DESCRIPTOR_MSVCRT 1019e04c     msvcrt:MSVCRT.dll
 0002:00000060       __IMPORT_DESCRIPTOR_KERNEL32 1019e060     kernel32:KERNEL32.dll
 0002:00000074       __NULL_IMPORT_DESCRIPTOR   1019e074     msvcrt:MSVCRT.dll
 0003:00000000       ___xc_a                    101a0000     msvcrt:cinitexe.obj
 0003:00000004       ___xc_z                    101a0004     msvcrt:cinitexe.obj
 0003:00000008       ___xi_a                    101a0008     msvcrt:cinitexe.obj
 0003:0000000c       ___xi_z                    101a000c     msvcrt:cinitexe.obj
 0003:00000020       _fftwf_version             101a0020     FFTW3f:version.obj
 0003:000003e0       _fftwf_solvtab_dft_simd    101a03e0     FFTW3f:codlist.obj
 0003:00000740       _fftwf_solvtab_dft_inplace 101a0740     FFTW3f:codlist.obj
 0003:00000780       _fftwf_solvtab_dft_standard 101a0780     FFTW3f:codlist.obj
 0003:0000091c       _fftwf_solvtab_rdft_r2r    101a091c     FFTW3f:codlist.obj
 0003:00000940       _fftwf_solvtab_rdft_hc2r   101a0940     FFTW3f:codlist.obj
 0003:00000ac0       _fftwf_solvtab_rdft_r2hc   101a0ac0     FFTW3f:codlist.obj
 0003:000029f8       _fftw_version              101a29f8     FFTW3d:version.obj
 0003:00002dc0       _fftw_solvtab_dft_simd     101a2dc0     FFTW3d:codlist.obj
 0003:00003120       _fftw_solvtab_dft_inplace  101a3120     FFTW3d:codlist.obj
 0003:00003160       _fftw_solvtab_dft_standard 101a3160     FFTW3d:codlist.obj
 0003:000032fc       _fftw_solvtab_rdft_r2r     101a32fc     FFTW3d:codlist.obj
 0003:00003320       _fftw_solvtab_rdft_hc2r    101a3320     FFTW3d:codlist.obj
 0003:000034a0       _fftw_solvtab_rdft_r2hc    101a34a0     FFTW3d:codlist.obj
 0003:000046c0       _fftwl_version             101a46c0     FFTW3l:version.obj
 0003:00004a68       _fftwl_solvtab_dft_inplace 101a4a68     FFTW3l:codlist.obj
 0003:00004aa0       _fftwl_solvtab_dft_standard 101a4aa0     FFTW3l:codlist.obj
 0003:00004c3c       _fftwl_solvtab_rdft_r2r    101a4c3c     FFTW3l:codlist.obj
 0003:00004c60       _fftwl_solvtab_rdft_hc2r   101a4c60     FFTW3l:codlist.obj
 0003:00004de0       _fftwl_solvtab_rdft_r2hc   101a4de0     FFTW3l:codlist.obj
 0003:00005304       _fftwf_codelet_optim       101a5304     FFTW3f:version.obj
 0003:00005308       _fftwf_cc                  101a5308     FFTW3f:version.obj
 0003:00005324       _fftwf_kdft_dit_register_hook 101a5324     FFTW3f:kdft-dit.obj
 0003:00005328       _fftwf_khc2hc_dif_register_hook 101a5328     FFTW3f:khc2hc-dif.obj
 0003:0000532c       _fftwf_khc2hc_dit_register_hook 101a532c     FFTW3f:khc2hc-dit.obj
 0003:000053a0       _fftw_codelet_optim        101a53a0     FFTW3d:version.obj
 0003:000053a4       _fftw_cc                   101a53a4     FFTW3d:version.obj
 0003:000053c0       _fftw_kdft_dit_register_hook 101a53c0     FFTW3d:kdft-dit.obj
 0003:000053c4       _fftw_khc2hc_dif_register_hook 101a53c4     FFTW3d:khc2hc-dif.obj
 0003:000053c8       _fftw_khc2hc_dit_register_hook 101a53c8     FFTW3d:khc2hc-dit.obj
 0003:00005440       _fftwl_codelet_optim       101a5440     FFTW3l:version.obj
 0003:00005444       _fftwl_cc                  101a5444     FFTW3l:version.obj
 0003:00005460       _fftwl_kdft_dit_register_hook 101a5460     FFTW3l:kdft-dit.obj
 0003:00005464       _fftwl_khc2hc_dif_register_hook 101a5464     FFTW3l:khc2hc-dif.obj
 0003:00005468       _fftwl_khc2hc_dit_register_hook 101a5468     FFTW3l:khc2hc-dit.obj
 0003:0000546c       __adjust_fdiv              101a546c     <common>
 0003:00005470       ___onexitend               101a5470     <common>
 0003:00005474       ___onexitbegin             101a5474     <common>
 0003:00005478       __pRawDllMain              101a5478     <common>
 0004:00000000       ??_C@_0CD@GIJON@fftw?3?5?$CFs?3?$CFd?3?5assertion?5failed?3?5?$CF@ 101a6000     FFTW3f:assert.obj
 0004:00000024       ??_C@_01A@p?$AA@           101a6024     FFTW3f:alloc.obj
 0004:00000028       ??_C@_0CK@FEGJFMNN@C?3?2src?2fftw3win32?2fftw?93?40?2kerne@ 101a6028     FFTW3f:alloc.obj
 0004:000001c0       ??_C@_06A@?$CInull?$CJ?$AA@ 101a61c0     FFTW3f:print.obj
 0004:000001c8       ??_C@_06A@?$CF8?48lx?$AA@  101a61c8     FFTW3f:print.obj
 0004:000001d0       ??_C@_02A@?$CFd?$AA@       101a61d0     FFTW3f:print.obj
 0004:000001d4       ??_C@_03A@?$CFld?$AA@      101a61d4     FFTW3f:print.obj
 0004:000001d8       ??_C@_04A@?9x?$CFd?$AA@    101a61d8     FFTW3f:print.obj
 0004:000001e0       ??_C@_03A@?$DN?$CFd?$AA@   101a61e0     FFTW3f:print.obj
 0004:000001e4       ??_C@_02A@?$CFu?$AA@       101a61e4     FFTW3f:print.obj
 0004:000001e8       ??_C@_02A@?$CFx?$AA@       101a61e8     FFTW3f:print.obj
 0004:000001fc       ??_C@_03A@dft?$AA@         101a61fc     FFTW3f:problem.obj
 0004:00000200       ??_C@_0BN@A@?$CIdft?5?$CFd?5?$CFd?5?$CFd?5?$CFtd?5?$CFtd?5?$CFT?5?$CFT?$CJ?$AA@ 101a6200     FFTW3f:problem.obj
 0004:00000230       ??_C@_05A@rdft2?$AA@       101a6230     FFTW3f:problem2.obj
 0004:00000238       ??_C@_0BM@A@?$CIrdft2?5?$CFd?5?$CFtd?5?$CFtd?5?$CFd?5?$CFT?5?$CFT?$CJ?$AA@ 101a6238     FFTW3f:problem2.obj
 0004:00000268       ??_C@_04A@rdft?$AA@        101a6268     FFTW3f:problem.obj
 0004:00000270       ??_C@_0BD@A@?$CIrdft?5?$CFd?5?$CFtd?5?$CFT?5?$CFT?$AA@ 101a6270     FFTW3f:problem.obj
 0004:00000284       ??_C@_03A@?5?$CFd?$AA@     101a6284     FFTW3f:problem.obj
 0004:00000288       ??_C@_01A@?$CJ?$AA@        101a6288     FFTW3f:problem.obj
 0004:000002c0       ??_C@_0BK@A@?$CIFFTW?93?401?5fftwf_wisdom?$CF?$CI?$AA@ 101a62c0     FFTW3f:planner.obj
 0004:000002dc       ??_C@_0CC@CGC@?$CI?$CFs?5?$CFd?5?$CDx?$CFx?5?$CDx?$CFM?5?$CDx?$CFM?5?$CDx?$CFM?5?$CDx?$CFM?$CJ@ 101a62dc     FFTW3f:planner.obj
 0004:00000300       ??_C@_04A@?$CF?$CJ?$CJ?6?$AA@ 101a6300     FFTW3f:planner.obj
 0004:00000308       ??_C@_0BI@A@?$CIFFTW?93?401?5fftwf_wisdom?$AA@ 101a6308     FFTW3f:planner.obj
 0004:00000320       ??_C@_0CC@JMF@?$CI?$CF?$CKs?5?$CFd?5?$CDx?$CFx?5?$CDx?$CFM?5?$CDx?$CFM?5?$CDx?$CFM?5?$CDx?$CFM@ 101a6320     FFTW3f:planner.obj
 0004:000005b4       ??_C@_01A@?$CI?$AA@        101a65b4     FFTW3f:tensor.obj
 0004:000005b8       ??_C@_0N@A@?$CFs?$CI?$CFd?5?$CFd?5?$CFd?$CJ?$AA@ 101a65b8     FFTW3f:tensor.obj
 0004:000005c8       ??_C@_00A@?$AA@            101a65c8     FFTW3f:tensor.obj
 0004:000005cc       ??_C@_01A@?5?$AA@          101a65cc     FFTW3f:tensor.obj
 0004:000005d0       ??_C@_0M@A@rank?9minfty?$AA@ 101a65d0     FFTW3f:tensor.obj
 0004:00000610       ??_C@_0BM@A@fftwf_dft_indirect_register?$AA@ 101a6610     FFTW3f:conf.obj
 0004:0000062c       ??_C@_0BJ@A@fftwf_dft_rank0_register?$AA@ 101a662c     FFTW3f:conf.obj
 0004:00000648       ??_C@_0BN@A@fftwf_dft_rank_geq2_register?$AA@ 101a6648     FFTW3f:conf.obj
 0004:00000668       ??_C@_0BO@A@fftwf_dft_vrank_geq1_register?$AA@ 101a6668     FFTW3f:conf.obj
 0004:00000688       ??_C@_0CE@BJHJJPL@fftwf_dft_vrank2_transpose_regis@ 101a6688     FFTW3f:conf.obj
 0004:000006ac       ??_C@_0CE@BJHJJPL@fftwf_dft_vrank3_transpose_regis@ 101a66ac     FFTW3f:conf.obj
 0004:000006d0       ??_C@_0BM@A@fftwf_dft_buffered_register?$AA@ 101a66d0     FFTW3f:conf.obj
 0004:000006ec       ??_C@_0BL@A@fftwf_dft_generic_register?$AA@ 101a66ec     FFTW3f:conf.obj
 0004:00000708       ??_C@_0BJ@A@fftwf_dft_rader_register?$AA@ 101a6708     FFTW3f:conf.obj
 0004:00000724       ??_C@_0BH@A@fftwf_dft_nop_register?$AA@ 101a6724     FFTW3f:conf.obj
 0004:0000073c       ??_C@_0BN@A@fftwf_rdft_indirect_register?$AA@ 101a673c     FFTW3f:conf.obj
 0004:0000075c       ??_C@_0BK@A@fftwf_rdft_rank0_register?$AA@ 101a675c     FFTW3f:conf.obj
 0004:00000778       ??_C@_0BP@A@fftwf_rdft_vrank_geq1_register?$AA@ 101a6778     FFTW3f:conf.obj
 0004:00000798       ??_C@_0BI@A@fftwf_rdft_nop_register?$AA@ 101a6798     FFTW3f:conf.obj
 0004:000007b0       ??_C@_0BN@A@fftwf_rdft_buffered_register?$AA@ 101a67b0     FFTW3f:conf.obj
 0004:000007d0       ??_C@_0CA@A@fftwf_rdft_rader_hc2hc_register?$AA@ 101a67d0     FFTW3f:conf.obj
 0004:000007f0       ??_C@_0BM@A@fftwf_rdft_generic_register?$AA@ 101a67f0     FFTW3f:conf.obj
 0004:0000080c       ??_C@_0BO@A@fftwf_rdft_rank_geq2_register?$AA@ 101a680c     FFTW3f:conf.obj
 0004:0000082c       ??_C@_0BI@A@fftwf_dft_r2hc_register?$AA@ 101a682c     FFTW3f:conf.obj
 0004:00000844       ??_C@_0BI@A@fftwf_rdft_dht_register?$AA@ 101a6844     FFTW3f:conf.obj
 0004:0000085c       ??_C@_0BI@A@fftwf_dht_r2hc_register?$AA@ 101a685c     FFTW3f:conf.obj
 0004:00000874       ??_C@_0BJ@A@fftwf_dht_rader_register?$AA@ 101a6874     FFTW3f:conf.obj
 0004:00000890       ??_C@_0CA@A@fftwf_rdft2_vrank_geq1_register?$AA@ 101a6890     FFTW3f:conf.obj
 0004:000008b0       ??_C@_0BJ@A@fftwf_rdft2_nop_register?$AA@ 101a68b0     FFTW3f:conf.obj
 0004:000008cc       ??_C@_0BL@A@fftwf_rdft2_rank0_register?$AA@ 101a68cc     FFTW3f:conf.obj
 0004:000008e8       ??_C@_0BO@A@fftwf_rdft2_buffered_register?$AA@ 101a68e8     FFTW3f:conf.obj
 0004:00000908       ??_C@_0BP@A@fftwf_rdft2_rank_geq2_register?$AA@ 101a6908     FFTW3f:conf.obj
 0004:00000928       ??_C@_0BM@A@fftwf_rdft2_radix2_register?$AA@ 101a6928     FFTW3f:conf.obj
 0004:00000944       ??_C@_0CB@A@fftwf_redft00e_r2hc_pad_register@ 101a6944     FFTW3f:conf.obj
 0004:00000968       ??_C@_0CB@A@fftwf_rodft00e_r2hc_pad_register@ 101a6968     FFTW3f:conf.obj
 0004:0000098c       ??_C@_0BP@A@fftwf_reodft010e_r2hc_register?$AA@ 101a698c     FFTW3f:conf.obj
 0004:000009ac       ??_C@_0CF@GAHPLNGO@fftwf_reodft11e_radix2_r2hc_regi@ 101a69ac     FFTW3f:conf.obj
 0004:000009d4       ??_C@_0CC@BLCK@fftwf_reodft11e_r2hc_odd_registe@ 101a69d4     FFTW3f:conf.obj
 0004:00000a24       ??_C@_0BE@A@dft?9indirect?9before?$AA@ 101a6a24     FFTW3f:indirect.obj
 0004:00000a38       ??_C@_0BD@A@dft?9indirect?9after?$AA@ 101a6a38     FFTW3f:indirect.obj
 0004:00000a4c       ??_C@_0BB@A@?$CI?$CFs?$CF?$CI?$CFp?$CF?$CJ?$CF?$CI?$CFp?$CF?$CJ?$CJ?$AA@ 101a6a4c     FFTW3f:indirect.obj
 0004:00000ab0       ??_C@_0P@A@dft?9rank0?9cpy1?$AA@ 101a6ab0     FFTW3f:rank0.obj
 0004:00000ac0       ??_C@_0O@A@dft?9rank0?9vec?$AA@ 101a6ac0     FFTW3f:rank0.obj
 0004:00000ad0       ??_C@_0BF@A@dft?9rank0?9io1?9memcpy?$AA@ 101a6ad0     FFTW3f:rank0.obj
 0004:00000ae8       ??_C@_0BG@A@dft?9rank0?9io2r?9memcpy?$AA@ 101a6ae8     FFTW3f:rank0.obj
 0004:00000b00       ??_C@_0BG@A@dft?9rank0?9io2i?9memcpy?$AA@ 101a6b00     FFTW3f:rank0.obj
 0004:00000b18       ??_C@_06A@?$CI?$CFs?$CFv?$CJ?$AA@ 101a6b18     FFTW3f:rank0.obj
 0004:00000b34       ??_C@_0BN@A@?$CIdft?9rank?$DO?$DN2?1?$CFd?$CF?$CI?$CFp?$CF?$CJ?$CF?$CI?$CFp?$CF?$CJ?$CJ?$AA@ 101a6b34     FFTW3f:rank-geq2.obj
 0004:00000b78       ??_C@_0BM@A@?$CIdft?9vrank?$DO?$DN1?9x?$CFd?1?$CFd?$CF?$CI?$CFp?$CF?$CJ?$CJ?$AA@ 101a6b78     FFTW3f:vrank-geq1.obj
 0004:00000ba8       ??_C@_0BG@A@?$CIdft?9transpose?9?$CFdx?$CFd?$CJ?$AA@ 101a6ba8     FFTW3f:vrank2-transpose.obj
 0004:00000bd4       ??_C@_0BI@A@?$CIdft?9transpose?9?$CFdx?$CFd?$CFv?$CJ?$AA@ 101a6bd4     FFTW3f:vrank3-transpose.obj
 0004:00000c14       ??_C@_0CC@JMF@?$CI?$CFs?9?$CFd?$CFv?1?$CFd?9?$CFd?$CF?$CI?$CFp?$CF?$CJ?$CF?$CI?$CFp?$CF?$CJ?$CF?$CI?$CFp?$CF?$CJ@ 101a6c14     FFTW3f:buffered.obj
 0004:00000c38       ??_C@_0N@A@dft?9buffered?$AA@ 101a6c38     FFTW3f:buffered.obj
 0004:00000c5c       ??_C@_0BL@A@?$CIdft?9generic?9dit?9?$CFd?$CF?$CI?$CFp?$CF?$CJ?$CJ?$AA@ 101a6c5c     FFTW3f:generic.obj
 0004:00000ca0       ??_C@_0BH@A@?$CI?$CFs?9?$CFd?$CFois?$DN?$CFoos?$DN?$CF?$CI?$CFp?$CF?$CJ?$AA@ 101a6ca0     FFTW3f:rader.obj
 0004:00000cb8       ??_C@_06A@?$CF?$CI?$CFp?$CF?$CJ?$AA@ 101a6cb8     FFTW3f:rader.obj
 0004:00000cc0       ??_C@_09A@dft?9rader?$AA@  101a6cc0     FFTW3f:rader.obj
 0004:00000ccc       ??_C@_0O@A@dft?9rader?9dit?$AA@ 101a6ccc     FFTW3f:rader.obj
 0004:00000cdc       ??_C@_07A@?$CF?$CI?$CFp?$CF?$CJ?$CJ?$AA@ 101a6cdc     FFTW3f:rader.obj
 0004:00000cf8       ??_C@_09A@?$CIdft?9nop?$CJ?$AA@ 101a6cf8     FFTW3f:nop.obj
 0004:00000d04       ??_C@_0BF@A@fftwf_codelet_n1fv_2?$AA@ 101a6d04     FFTW3f:codlist.obj
 0004:00000d1c       ??_C@_0BF@A@fftwf_codelet_n1fv_3?$AA@ 101a6d1c     FFTW3f:codlist.obj
 0004:00000d34       ??_C@_0BF@A@fftwf_codelet_n1fv_4?$AA@ 101a6d34     FFTW3f:codlist.obj
 0004:00000d4c       ??_C@_0BF@A@fftwf_codelet_n1fv_5?$AA@ 101a6d4c     FFTW3f:codlist.obj
 0004:00000d64       ??_C@_0BF@A@fftwf_codelet_n1fv_6?$AA@ 101a6d64     FFTW3f:codlist.obj
 0004:00000d7c       ??_C@_0BF@A@fftwf_codelet_n1fv_7?$AA@ 101a6d7c     FFTW3f:codlist.obj
 0004:00000d94       ??_C@_0BF@A@fftwf_codelet_n1fv_8?$AA@ 101a6d94     FFTW3f:codlist.obj
 0004:00000dac       ??_C@_0BF@A@fftwf_codelet_n1fv_9?$AA@ 101a6dac     FFTW3f:codlist.obj
 0004:00000dc4       ??_C@_0BG@A@fftwf_codelet_n1fv_10?$AA@ 101a6dc4     FFTW3f:codlist.obj
 0004:00000ddc       ??_C@_0BG@A@fftwf_codelet_n1fv_11?$AA@ 101a6ddc     FFTW3f:codlist.obj
 0004:00000df4       ??_C@_0BG@A@fftwf_codelet_n1fv_12?$AA@ 101a6df4     FFTW3f:codlist.obj
 0004:00000e0c       ??_C@_0BG@A@fftwf_codelet_n1fv_13?$AA@ 101a6e0c     FFTW3f:codlist.obj
 0004:00000e24       ??_C@_0BG@A@fftwf_codelet_n1fv_14?$AA@ 101a6e24     FFTW3f:codlist.obj
 0004:00000e3c       ??_C@_0BG@A@fftwf_codelet_n1fv_15?$AA@ 101a6e3c     FFTW3f:codlist.obj
 0004:00000e54       ??_C@_0BG@A@fftwf_codelet_n1fv_16?$AA@ 101a6e54     FFTW3f:codlist.obj
 0004:00000e6c       ??_C@_0BF@A@fftwf_codelet_n1bv_2?$AA@ 101a6e6c     FFTW3f:codlist.obj
 0004:00000e84       ??_C@_0BF@A@fftwf_codelet_n1bv_3?$AA@ 101a6e84     FFTW3f:codlist.obj
 0004:00000e9c       ??_C@_0BF@A@fftwf_codelet_n1bv_4?$AA@ 101a6e9c     FFTW3f:codlist.obj
 0004:00000eb4       ??_C@_0BF@A@fftwf_codelet_n1bv_5?$AA@ 101a6eb4     FFTW3f:codlist.obj
 0004:00000ecc       ??_C@_0BF@A@fftwf_codelet_n1bv_6?$AA@ 101a6ecc     FFTW3f:codlist.obj
 0004:00000ee4       ??_C@_0BF@A@fftwf_codelet_n1bv_7?$AA@ 101a6ee4     FFTW3f:codlist.obj
 0004:00000efc       ??_C@_0BF@A@fftwf_codelet_n1bv_8?$AA@ 101a6efc     FFTW3f:codlist.obj
 0004:00000f14       ??_C@_0BF@A@fftwf_codelet_n1bv_9?$AA@ 101a6f14     FFTW3f:codlist.obj
 0004:00000f2c       ??_C@_0BG@A@fftwf_codelet_n1bv_10?$AA@ 101a6f2c     FFTW3f:codlist.obj
 0004:00000f44       ??_C@_0BG@A@fftwf_codelet_n1bv_11?$AA@ 101a6f44     FFTW3f:codlist.obj
 0004:00000f5c       ??_C@_0BG@A@fftwf_codelet_n1bv_12?$AA@ 101a6f5c     FFTW3f:codlist.obj
 0004:00000f74       ??_C@_0BG@A@fftwf_codelet_n1bv_13?$AA@ 101a6f74     FFTW3f:codlist.obj
 0004:00000f8c       ??_C@_0BG@A@fftwf_codelet_n1bv_14?$AA@ 101a6f8c     FFTW3f:codlist.obj
 0004:00000fa4       ??_C@_0BG@A@fftwf_codelet_n1bv_15?$AA@ 101a6fa4     FFTW3f:codlist.obj
 0004:00000fbc       ??_C@_0BG@A@fftwf_codelet_n1bv_16?$AA@ 101a6fbc     FFTW3f:codlist.obj
 0004:00000fd4       ??_C@_0BF@A@fftwf_codelet_n2fv_2?$AA@ 101a6fd4     FFTW3f:codlist.obj
 0004:00000fec       ??_C@_0BF@A@fftwf_codelet_n2fv_3?$AA@ 101a6fec     FFTW3f:codlist.obj
 0004:00001004       ??_C@_0BF@A@fftwf_codelet_n2fv_4?$AA@ 101a7004     FFTW3f:codlist.obj
 0004:0000101c       ??_C@_0BF@A@fftwf_codelet_n2fv_5?$AA@ 101a701c     FFTW3f:codlist.obj
 0004:00001034       ??_C@_0BF@A@fftwf_codelet_n2fv_6?$AA@ 101a7034     FFTW3f:codlist.obj
 0004:0000104c       ??_C@_0BF@A@fftwf_codelet_n2fv_7?$AA@ 101a704c     FFTW3f:codlist.obj
 0004:00001064       ??_C@_0BF@A@fftwf_codelet_n2fv_8?$AA@ 101a7064     FFTW3f:codlist.obj
 0004:0000107c       ??_C@_0BF@A@fftwf_codelet_n2fv_9?$AA@ 101a707c     FFTW3f:codlist.obj
 0004:00001094       ??_C@_0BG@A@fftwf_codelet_n2fv_10?$AA@ 101a7094     FFTW3f:codlist.obj
 0004:000010ac       ??_C@_0BG@A@fftwf_codelet_n2fv_11?$AA@ 101a70ac     FFTW3f:codlist.obj
 0004:000010c4       ??_C@_0BG@A@fftwf_codelet_n2fv_12?$AA@ 101a70c4     FFTW3f:codlist.obj
 0004:000010dc       ??_C@_0BG@A@fftwf_codelet_n2fv_13?$AA@ 101a70dc     FFTW3f:codlist.obj
 0004:000010f4       ??_C@_0BG@A@fftwf_codelet_n2fv_14?$AA@ 101a70f4     FFTW3f:codlist.obj
 0004:0000110c       ??_C@_0BG@A@fftwf_codelet_n2fv_15?$AA@ 101a710c     FFTW3f:codlist.obj
 0004:00001124       ??_C@_0BG@A@fftwf_codelet_n2fv_16?$AA@ 101a7124     FFTW3f:codlist.obj
 0004:0000113c       ??_C@_0BF@A@fftwf_codelet_n2bv_2?$AA@ 101a713c     FFTW3f:codlist.obj
 0004:00001154       ??_C@_0BF@A@fftwf_codelet_n2bv_3?$AA@ 101a7154     FFTW3f:codlist.obj
 0004:0000116c       ??_C@_0BF@A@fftwf_codelet_n2bv_4?$AA@ 101a716c     FFTW3f:codlist.obj
 0004:00001184       ??_C@_0BF@A@fftwf_codelet_n2bv_5?$AA@ 101a7184     FFTW3f:codlist.obj
 0004:0000119c       ??_C@_0BF@A@fftwf_codelet_n2bv_6?$AA@ 101a719c     FFTW3f:codlist.obj
 0004:000011b4       ??_C@_0BF@A@fftwf_codelet_n2bv_7?$AA@ 101a71b4     FFTW3f:codlist.obj
 0004:000011cc       ??_C@_0BF@A@fftwf_codelet_n2bv_8?$AA@ 101a71cc     FFTW3f:codlist.obj
 0004:000011e4       ??_C@_0BF@A@fftwf_codelet_n2bv_9?$AA@ 101a71e4     FFTW3f:codlist.obj
 0004:000011fc       ??_C@_0BG@A@fftwf_codelet_n2bv_10?$AA@ 101a71fc     FFTW3f:codlist.obj
 0004:00001214       ??_C@_0BG@A@fftwf_codelet_n2bv_11?$AA@ 101a7214     FFTW3f:codlist.obj
 0004:0000122c       ??_C@_0BG@A@fftwf_codelet_n2bv_12?$AA@ 101a722c     FFTW3f:codlist.obj
 0004:00001244       ??_C@_0BG@A@fftwf_codelet_n2bv_13?$AA@ 101a7244     FFTW3f:codlist.obj
 0004:0000125c       ??_C@_0BG@A@fftwf_codelet_n2bv_14?$AA@ 101a725c     FFTW3f:codlist.obj
 0004:00001274       ??_C@_0BG@A@fftwf_codelet_n2bv_15?$AA@ 101a7274     FFTW3f:codlist.obj
 0004:0000128c       ??_C@_0BG@A@fftwf_codelet_n2bv_16?$AA@ 101a728c     FFTW3f:codlist.obj
 0004:000012a4       ??_C@_0BG@A@fftwf_codelet_m1fv_16?$AA@ 101a72a4     FFTW3f:codlist.obj
 0004:000012bc       ??_C@_0BG@A@fftwf_codelet_m1fv_32?$AA@ 101a72bc     FFTW3f:codlist.obj
 0004:000012d4       ??_C@_0BG@A@fftwf_codelet_m1fv_64?$AA@ 101a72d4     FFTW3f:codlist.obj
 0004:000012ec       ??_C@_0BG@A@fftwf_codelet_m1bv_16?$AA@ 101a72ec     FFTW3f:codlist.obj
 0004:00001304       ??_C@_0BG@A@fftwf_codelet_m1bv_32?$AA@ 101a7304     FFTW3f:codlist.obj
 0004:0000131c       ??_C@_0BG@A@fftwf_codelet_m1bv_64?$AA@ 101a731c     FFTW3f:codlist.obj
 0004:00001334       ??_C@_0BG@A@fftwf_codelet_m2fv_16?$AA@ 101a7334     FFTW3f:codlist.obj
 0004:0000134c       ??_C@_0BG@A@fftwf_codelet_m2fv_32?$AA@ 101a734c     FFTW3f:codlist.obj
 0004:00001364       ??_C@_0BG@A@fftwf_codelet_m2fv_64?$AA@ 101a7364     FFTW3f:codlist.obj
 0004:0000137c       ??_C@_0BG@A@fftwf_codelet_m2bv_16?$AA@ 101a737c     FFTW3f:codlist.obj
 0004:00001394       ??_C@_0BG@A@fftwf_codelet_m2bv_32?$AA@ 101a7394     FFTW3f:codlist.obj
 0004:000013ac       ??_C@_0BG@A@fftwf_codelet_m2bv_64?$AA@ 101a73ac     FFTW3f:codlist.obj
 0004:000013c4       ??_C@_0BF@A@fftwf_codelet_t1fv_2?$AA@ 101a73c4     FFTW3f:codlist.obj
 0004:000013dc       ??_C@_0BF@A@fftwf_codelet_t1fv_3?$AA@ 101a73dc     FFTW3f:codlist.obj
 0004:000013f4       ??_C@_0BF@A@fftwf_codelet_t1fv_4?$AA@ 101a73f4     FFTW3f:codlist.obj
 0004:0000140c       ??_C@_0BF@A@fftwf_codelet_t1fv_5?$AA@ 101a740c     FFTW3f:codlist.obj
 0004:00001424       ??_C@_0BF@A@fftwf_codelet_t1fv_6?$AA@ 101a7424     FFTW3f:codlist.obj
 0004:0000143c       ??_C@_0BF@A@fftwf_codelet_t1fv_7?$AA@ 101a743c     FFTW3f:codlist.obj
 0004:00001454       ??_C@_0BF@A@fftwf_codelet_t1fv_8?$AA@ 101a7454     FFTW3f:codlist.obj
 0004:0000146c       ??_C@_0BF@A@fftwf_codelet_t1fv_9?$AA@ 101a746c     FFTW3f:codlist.obj
 0004:00001484       ??_C@_0BG@A@fftwf_codelet_t1fv_10?$AA@ 101a7484     FFTW3f:codlist.obj
 0004:0000149c       ??_C@_0BG@A@fftwf_codelet_t1fv_12?$AA@ 101a749c     FFTW3f:codlist.obj
 0004:000014b4       ??_C@_0BG@A@fftwf_codelet_t1fv_15?$AA@ 101a74b4     FFTW3f:codlist.obj
 0004:000014cc       ??_C@_0BG@A@fftwf_codelet_t1fv_16?$AA@ 101a74cc     FFTW3f:codlist.obj
 0004:000014e4       ??_C@_0BG@A@fftwf_codelet_t1fv_32?$AA@ 101a74e4     FFTW3f:codlist.obj
 0004:000014fc       ??_C@_0BG@A@fftwf_codelet_t1fv_64?$AA@ 101a74fc     FFTW3f:codlist.obj
 0004:00001514       ??_C@_0BF@A@fftwf_codelet_t1bv_2?$AA@ 101a7514     FFTW3f:codlist.obj
 0004:0000152c       ??_C@_0BF@A@fftwf_codelet_t1bv_3?$AA@ 101a752c     FFTW3f:codlist.obj
 0004:00001544       ??_C@_0BF@A@fftwf_codelet_t1bv_4?$AA@ 101a7544     FFTW3f:codlist.obj
 0004:0000155c       ??_C@_0BF@A@fftwf_codelet_t1bv_5?$AA@ 101a755c     FFTW3f:codlist.obj
 0004:00001574       ??_C@_0BF@A@fftwf_codelet_t1bv_6?$AA@ 101a7574     FFTW3f:codlist.obj
 0004:0000158c       ??_C@_0BF@A@fftwf_codelet_t1bv_7?$AA@ 101a758c     FFTW3f:codlist.obj
 0004:000015a4       ??_C@_0BF@A@fftwf_codelet_t1bv_8?$AA@ 101a75a4     FFTW3f:codlist.obj
 0004:000015bc       ??_C@_0BF@A@fftwf_codelet_t1bv_9?$AA@ 101a75bc     FFTW3f:codlist.obj
 0004:000015d4       ??_C@_0BG@A@fftwf_codelet_t1bv_10?$AA@ 101a75d4     FFTW3f:codlist.obj
 0004:000015ec       ??_C@_0BG@A@fftwf_codelet_t1bv_12?$AA@ 101a75ec     FFTW3f:codlist.obj
 0004:00001604       ??_C@_0BG@A@fftwf_codelet_t1bv_15?$AA@ 101a7604     FFTW3f:codlist.obj
 0004:0000161c       ??_C@_0BG@A@fftwf_codelet_t1bv_16?$AA@ 101a761c     FFTW3f:codlist.obj
 0004:00001634       ??_C@_0BG@A@fftwf_codelet_t1bv_32?$AA@ 101a7634     FFTW3f:codlist.obj
 0004:0000164c       ??_C@_0BG@A@fftwf_codelet_t1bv_64?$AA@ 101a764c     FFTW3f:codlist.obj
 0004:00001664       ??_C@_0BF@A@fftwf_codelet_q1fv_2?$AA@ 101a7664     FFTW3f:codlist.obj
 0004:0000167c       ??_C@_0BF@A@fftwf_codelet_q1fv_4?$AA@ 101a767c     FFTW3f:codlist.obj
 0004:00001694       ??_C@_0BF@A@fftwf_codelet_q1fv_8?$AA@ 101a7694     FFTW3f:codlist.obj
 0004:000016ac       ??_C@_0BF@A@fftwf_codelet_q1bv_2?$AA@ 101a76ac     FFTW3f:codlist.obj
 0004:000016c4       ??_C@_0BF@A@fftwf_codelet_q1bv_4?$AA@ 101a76c4     FFTW3f:codlist.obj
 0004:000016dc       ??_C@_0BF@A@fftwf_codelet_q1bv_8?$AA@ 101a76dc     FFTW3f:codlist.obj
 0004:000016f4       ??_C@_0BD@A@fftwf_codelet_q1_2?$AA@ 101a76f4     FFTW3f:codlist.obj
 0004:00001708       ??_C@_0BD@A@fftwf_codelet_q1_4?$AA@ 101a7708     FFTW3f:codlist.obj
 0004:0000171c       ??_C@_0BD@A@fftwf_codelet_q1_8?$AA@ 101a771c     FFTW3f:codlist.obj
 0004:00001730       ??_C@_0BD@A@fftwf_codelet_q1_3?$AA@ 101a7730     FFTW3f:codlist.obj
 0004:00001744       ??_C@_0BD@A@fftwf_codelet_q1_5?$AA@ 101a7744     FFTW3f:codlist.obj
 0004:00001758       ??_C@_0BD@A@fftwf_codelet_q1_6?$AA@ 101a7758     FFTW3f:codlist.obj
 0004:0000176c       ??_C@_0BD@A@fftwf_codelet_n1_2?$AA@ 101a776c     FFTW3f:codlist.obj
 0004:00001780       ??_C@_0BD@A@fftwf_codelet_n1_3?$AA@ 101a7780     FFTW3f:codlist.obj
 0004:00001794       ??_C@_0BD@A@fftwf_codelet_n1_4?$AA@ 101a7794     FFTW3f:codlist.obj
 0004:000017a8       ??_C@_0BD@A@fftwf_codelet_n1_5?$AA@ 101a77a8     FFTW3f:codlist.obj
 0004:000017bc       ??_C@_0BD@A@fftwf_codelet_n1_6?$AA@ 101a77bc     FFTW3f:codlist.obj
 0004:000017d0       ??_C@_0BD@A@fftwf_codelet_n1_7?$AA@ 101a77d0     FFTW3f:codlist.obj
 0004:000017e4       ??_C@_0BD@A@fftwf_codelet_n1_8?$AA@ 101a77e4     FFTW3f:codlist.obj
 0004:000017f8       ??_C@_0BD@A@fftwf_codelet_n1_9?$AA@ 101a77f8     FFTW3f:codlist.obj
 0004:0000180c       ??_C@_0BE@A@fftwf_codelet_n1_10?$AA@ 101a780c     FFTW3f:codlist.obj
 0004:00001820       ??_C@_0BE@A@fftwf_codelet_n1_11?$AA@ 101a7820     FFTW3f:codlist.obj
 0004:00001834       ??_C@_0BE@A@fftwf_codelet_n1_12?$AA@ 101a7834     FFTW3f:codlist.obj
 0004:00001848       ??_C@_0BE@A@fftwf_codelet_n1_13?$AA@ 101a7848     FFTW3f:codlist.obj
 0004:0000185c       ??_C@_0BE@A@fftwf_codelet_n1_14?$AA@ 101a785c     FFTW3f:codlist.obj
 0004:00001870       ??_C@_0BE@A@fftwf_codelet_n1_15?$AA@ 101a7870     FFTW3f:codlist.obj
 0004:00001884       ??_C@_0BE@A@fftwf_codelet_n1_16?$AA@ 101a7884     FFTW3f:codlist.obj
 0004:00001898       ??_C@_0BE@A@fftwf_codelet_m1_16?$AA@ 101a7898     FFTW3f:codlist.obj
 0004:000018ac       ??_C@_0BE@A@fftwf_codelet_m1_32?$AA@ 101a78ac     FFTW3f:codlist.obj
 0004:000018c0       ??_C@_0BE@A@fftwf_codelet_m1_64?$AA@ 101a78c0     FFTW3f:codlist.obj
 0004:000018d4       ??_C@_0BD@A@fftwf_codelet_t1_2?$AA@ 101a78d4     FFTW3f:codlist.obj
 0004:000018e8       ??_C@_0BD@A@fftwf_codelet_t1_3?$AA@ 101a78e8     FFTW3f:codlist.obj
 0004:000018fc       ??_C@_0BD@A@fftwf_codelet_t1_4?$AA@ 101a78fc     FFTW3f:codlist.obj
 0004:00001910       ??_C@_0BD@A@fftwf_codelet_t1_5?$AA@ 101a7910     FFTW3f:codlist.obj
 0004:00001924       ??_C@_0BD@A@fftwf_codelet_t1_6?$AA@ 101a7924     FFTW3f:codlist.obj
 0004:00001938       ??_C@_0BD@A@fftwf_codelet_t1_7?$AA@ 101a7938     FFTW3f:codlist.obj
 0004:0000194c       ??_C@_0BD@A@fftwf_codelet_t1_8?$AA@ 101a794c     FFTW3f:codlist.obj
 0004:00001960       ??_C@_0BD@A@fftwf_codelet_t1_9?$AA@ 101a7960     FFTW3f:codlist.obj
 0004:00001974       ??_C@_0BE@A@fftwf_codelet_t1_10?$AA@ 101a7974     FFTW3f:codlist.obj
 0004:00001988       ??_C@_0BE@A@fftwf_codelet_t1_12?$AA@ 101a7988     FFTW3f:codlist.obj
 0004:0000199c       ??_C@_0BE@A@fftwf_codelet_t1_15?$AA@ 101a799c     FFTW3f:codlist.obj
 0004:000019b0       ??_C@_0BE@A@fftwf_codelet_t1_16?$AA@ 101a79b0     FFTW3f:codlist.obj
 0004:000019c4       ??_C@_0BE@A@fftwf_codelet_t1_32?$AA@ 101a79c4     FFTW3f:codlist.obj
 0004:000019d8       ??_C@_0BE@A@fftwf_codelet_t1_64?$AA@ 101a79d8     FFTW3f:codlist.obj
 0004:000019ec       ??_C@_0BD@A@fftwf_codelet_t2_4?$AA@ 101a79ec     FFTW3f:codlist.obj
 0004:00001a00       ??_C@_0BD@A@fftwf_codelet_t2_8?$AA@ 101a7a00     FFTW3f:codlist.obj
 0004:00001a14       ??_C@_0BE@A@fftwf_codelet_t2_16?$AA@ 101a7a14     FFTW3f:codlist.obj
 0004:00001a28       ??_C@_0BE@A@fftwf_codelet_t2_32?$AA@ 101a7a28     FFTW3f:codlist.obj
 0004:00001a3c       ??_C@_0BE@A@fftwf_codelet_t2_64?$AA@ 101a7a3c     FFTW3f:codlist.obj
 0004:00001a7c       ??_C@_0BF@A@rdft?9indirect?9before?$AA@ 101a7a7c     FFTW3f:indirect.obj
 0004:00001a94       ??_C@_0BE@A@rdft?9indirect?9after?$AA@ 101a7a94     FFTW3f:indirect.obj
 0004:00001ae0       ??_C@_0BA@A@rdft?9rank0?9cpy1?$AA@ 101a7ae0     FFTW3f:rank0.obj
 0004:00001af0       ??_C@_0P@A@rdft?9rank0?9vec?$AA@ 101a7af0     FFTW3f:rank0.obj
 0004:00001b00       ??_C@_0BG@A@rdft?9rank0?9io1?9memcpy?$AA@ 101a7b00     FFTW3f:rank0.obj
 0004:00001b38       ??_C@_0BN@A@?$CIrdft?9vrank?$DO?$DN1?9x?$CFd?1?$CFd?$CF?$CI?$CFp?$CF?$CJ?$CJ?$AA@ 101a7b38     FFTW3f:vrank-geq1.obj
 0004:00001b6c       ??_C@_0L@A@?$CIrdft?9nop?$CJ?$AA@ 101a7b6c     FFTW3f:nop.obj
 0004:00001ba0       ??_C@_0O@A@rdft?9buffered?$AA@ 101a7ba0     FFTW3f:buffered.obj
 0004:00001bd8       ??_C@_0CF@FMPANHAO@?$CIrdft?9rader?9?$CFs?9?$CFd?$CF?$CI?$CFp?$CF?$CJ?$CF?$CI?$CFp?$CF?$CJ?$CF?$CI?$CF@ 101a7bd8     FFTW3f:rader-hc2hc.obj
 0004:00001c00       ??_C@_08A@r2hc?9dit?$AA@   101a7c00     FFTW3f:rader-hc2hc.obj
 0004:00001c0c       ??_C@_08A@hc2r?9dif?$AA@   101a7c0c     FFTW3f:rader-hc2hc.obj
 0004:00001c34       ??_C@_0BL@A@?$CIrdft?9generic?9?$CFs?9?$CFd?$CF?$CI?$CFp?$CF?$CJ?$CJ?$AA@ 101a7c34     FFTW3f:generic.obj
 0004:00001c64       ??_C@_0BO@A@?$CIrdft?9rank?$DO?$DN2?1?$CFd?$CF?$CI?$CFp?$CF?$CJ?$CF?$CI?$CFp?$CF?$CJ?$CJ?$AA@ 101a7c64     FFTW3f:rank-geq2.obj
 0004:00001c98       ??_C@_0BE@A@?$CIdft?9r2hc?9?$CFd?$CF?$CI?$CFp?$CF?$CJ?$CJ?$AA@ 101a7c98     FFTW3f:dft-r2hc.obj
 0004:00001cc4       ??_C@_0BC@A@?$CI?$CFs?9dht?9?$CFd?$CF?$CI?$CFp?$CF?$CJ?$CJ?$AA@ 101a7cc4     FFTW3f:rdft-dht.obj
 0004:00001cd8       ??_C@_04A@r2hc?$AA@        101a7cd8     FFTW3f:rdft-dht.obj
 0004:00001ce0       ??_C@_04A@hc2r?$AA@        101a7ce0     FFTW3f:rdft-dht.obj
 0004:00001cfc       ??_C@_0BE@A@?$CIdht?9r2hc?9?$CFd?$CF?$CI?$CFp?$CF?$CJ?$CJ?$AA@ 101a7cfc     FFTW3f:dht-r2hc.obj
 0004:00001d38       ??_C@_0BO@A@?$CIdht?9rader?9?$CFd?$CFois?$DN?$CFoos?$DN?$CF?$CI?$CFp?$CF?$CJ?$AA@ 101a7d38     FFTW3f:dht-rader.obj
 0004:00001d78       ??_C@_0BO@A@?$CIrdft2?9vrank?$DO?$DN1?9x?$CFd?1?$CFd?$CF?$CI?$CFp?$CF?$CJ?$CJ?$AA@ 101a7d78     FFTW3f:vrank-geq1-rdft2.obj
 0004:00001dac       ??_C@_0M@A@?$CIrdft2?9nop?$CJ?$AA@ 101a7dac     FFTW3f:nop2.obj
 0004:00001dd4       ??_C@_0BJ@A@?$CIrdft2?9hc2r?9rank0?$CF?$CI?$CFp?$CF?$CJ?$CJ?$AA@ 101a7dd4     FFTW3f:rank0-rdft2.obj
 0004:00001df0       ??_C@_0BF@A@?$CIrdft2?9r2hc?9rank0?$CFv?$CJ?$AA@ 101a7df0     FFTW3f:rank0-rdft2.obj
 0004:00001e34       ??_C@_0BP@A@?$CI?$CFs?9?$CFs?9?$CFd?$CFv?1?$CFd?9?$CFd?$CF?$CI?$CFp?$CF?$CJ?$CF?$CI?$CFp?$CF?$CJ?$CJ?$AA@ 101a7e34     FFTW3f:buffered2.obj
 0004:00001e54       ??_C@_0P@A@rdft2?9buffered?$AA@ 101a7e54     FFTW3f:buffered2.obj
 0004:00001e78       ??_C@_0BP@A@?$CIrdft2?9rank?$DO?$DN2?1?$CFd?$CF?$CI?$CFp?$CF?$CJ?$CF?$CI?$CFp?$CF?$CJ?$CJ?$AA@ 101a7e78     FFTW3f:rank-geq2-rdft2.obj
 0004:00001fa8       ??_C@_09A@r2hc2?9dft?$AA@  101a7fa8     FFTW3f:rdft2-radix2.obj
 0004:00001fb4       ??_C@_0L@A@r2hc2?9rdft?$AA@ 101a7fb4     FFTW3f:rdft2-radix2.obj
 0004:00001fc0       ??_C@_09A@hc2r2?9dft?$AA@  101a7fc0     FFTW3f:rdft2-radix2.obj
 0004:00001fcc       ??_C@_0L@A@hc2r2?9rdft?$AA@ 101a7fcc     FFTW3f:rdft2-radix2.obj
 0004:00001fd8       ??_C@_0BA@A@?$CI?$CFs?9?$CFd?$CFv?$CF?$CI?$CFp?$CF?$CJ?$CJ?$AA@ 101a7fd8     FFTW3f:rdft2-radix2.obj
 0004:00001fe8       ??_C@_0BE@A@fftwf_codelet_e01_8?$AA@ 101a7fe8     FFTW3f:codlist.obj
 0004:00001ffc       ??_C@_0BE@A@fftwf_codelet_e10_8?$AA@ 101a7ffc     FFTW3f:codlist.obj
 0004:00002010       ??_C@_0BF@A@fftwf_codelet_hc2r_3?$AA@ 101a8010     FFTW3f:codlist.obj
 0004:00002028       ??_C@_0BF@A@fftwf_codelet_hc2r_4?$AA@ 101a8028     FFTW3f:codlist.obj
 0004:00002040       ??_C@_0BF@A@fftwf_codelet_hc2r_5?$AA@ 101a8040     FFTW3f:codlist.obj
 0004:00002058       ??_C@_0BF@A@fftwf_codelet_hc2r_6?$AA@ 101a8058     FFTW3f:codlist.obj
 0004:00002070       ??_C@_0BF@A@fftwf_codelet_hc2r_7?$AA@ 101a8070     FFTW3f:codlist.obj
 0004:00002088       ??_C@_0BF@A@fftwf_codelet_hc2r_8?$AA@ 101a8088     FFTW3f:codlist.obj
 0004:000020a0       ??_C@_0BF@A@fftwf_codelet_hc2r_9?$AA@ 101a80a0     FFTW3f:codlist.obj
 0004:000020b8       ??_C@_0BG@A@fftwf_codelet_hc2r_10?$AA@ 101a80b8     FFTW3f:codlist.obj
 0004:000020d0       ??_C@_0BG@A@fftwf_codelet_hc2r_11?$AA@ 101a80d0     FFTW3f:codlist.obj
 0004:000020e8       ??_C@_0BG@A@fftwf_codelet_hc2r_12?$AA@ 101a80e8     FFTW3f:codlist.obj
 0004:00002100       ??_C@_0BG@A@fftwf_codelet_hc2r_13?$AA@ 101a8100     FFTW3f:codlist.obj
 0004:00002118       ??_C@_0BG@A@fftwf_codelet_hc2r_14?$AA@ 101a8118     FFTW3f:codlist.obj
 0004:00002130       ??_C@_0BG@A@fftwf_codelet_hc2r_15?$AA@ 101a8130     FFTW3f:codlist.obj
 0004:00002148       ??_C@_0BG@A@fftwf_codelet_hc2r_16?$AA@ 101a8148     FFTW3f:codlist.obj
 0004:00002160       ??_C@_0BG@A@fftwf_codelet_hc2r_32?$AA@ 101a8160     FFTW3f:codlist.obj
 0004:00002178       ??_C@_0BH@A@fftwf_codelet_mhc2r_32?$AA@ 101a8178     FFTW3f:codlist.obj
 0004:00002190       ??_C@_0BH@A@fftwf_codelet_mhc2r_64?$AA@ 101a8190     FFTW3f:codlist.obj
 0004:000021a8       ??_C@_0BI@A@fftwf_codelet_mhc2r_128?$AA@ 101a81a8     FFTW3f:codlist.obj
 0004:000021c0       ??_C@_0BD@A@fftwf_codelet_hb_2?$AA@ 101a81c0     FFTW3f:codlist.obj
 0004:000021d4       ??_C@_0BD@A@fftwf_codelet_hb_3?$AA@ 101a81d4     FFTW3f:codlist.obj
 0004:000021e8       ??_C@_0BD@A@fftwf_codelet_hb_4?$AA@ 101a81e8     FFTW3f:codlist.obj
 0004:000021fc       ??_C@_0BD@A@fftwf_codelet_hb_5?$AA@ 101a81fc     FFTW3f:codlist.obj
 0004:00002210       ??_C@_0BD@A@fftwf_codelet_hb_6?$AA@ 101a8210     FFTW3f:codlist.obj
 0004:00002224       ??_C@_0BD@A@fftwf_codelet_hb_7?$AA@ 101a8224     FFTW3f:codlist.obj
 0004:00002238       ??_C@_0BD@A@fftwf_codelet_hb_8?$AA@ 101a8238     FFTW3f:codlist.obj
 0004:0000224c       ??_C@_0BD@A@fftwf_codelet_hb_9?$AA@ 101a824c     FFTW3f:codlist.obj
 0004:00002260       ??_C@_0BE@A@fftwf_codelet_hb_10?$AA@ 101a8260     FFTW3f:codlist.obj
 0004:00002274       ??_C@_0BE@A@fftwf_codelet_hb_12?$AA@ 101a8274     FFTW3f:codlist.obj
 0004:00002288       ??_C@_0BE@A@fftwf_codelet_hb_15?$AA@ 101a8288     FFTW3f:codlist.obj
 0004:0000229c       ??_C@_0BE@A@fftwf_codelet_hb_16?$AA@ 101a829c     FFTW3f:codlist.obj
 0004:000022b0       ??_C@_0BE@A@fftwf_codelet_hb_32?$AA@ 101a82b0     FFTW3f:codlist.obj
 0004:000022c4       ??_C@_0BE@A@fftwf_codelet_hb_64?$AA@ 101a82c4     FFTW3f:codlist.obj
 0004:000022d8       ??_C@_0BI@A@fftwf_codelet_hc2rIII_2?$AA@ 101a82d8     FFTW3f:codlist.obj
 0004:000022f0       ??_C@_0BI@A@fftwf_codelet_hc2rIII_3?$AA@ 101a82f0     FFTW3f:codlist.obj
 0004:00002308       ??_C@_0BI@A@fftwf_codelet_hc2rIII_4?$AA@ 101a8308     FFTW3f:codlist.obj
 0004:00002320       ??_C@_0BI@A@fftwf_codelet_hc2rIII_5?$AA@ 101a8320     FFTW3f:codlist.obj
 0004:00002338       ??_C@_0BI@A@fftwf_codelet_hc2rIII_6?$AA@ 101a8338     FFTW3f:codlist.obj
 0004:00002350       ??_C@_0BI@A@fftwf_codelet_hc2rIII_7?$AA@ 101a8350     FFTW3f:codlist.obj
 0004:00002368       ??_C@_0BI@A@fftwf_codelet_hc2rIII_8?$AA@ 101a8368     FFTW3f:codlist.obj
 0004:00002380       ??_C@_0BI@A@fftwf_codelet_hc2rIII_9?$AA@ 101a8380     FFTW3f:codlist.obj
 0004:00002398       ??_C@_0BJ@A@fftwf_codelet_hc2rIII_10?$AA@ 101a8398     FFTW3f:codlist.obj
 0004:000023b4       ??_C@_0BJ@A@fftwf_codelet_hc2rIII_12?$AA@ 101a83b4     FFTW3f:codlist.obj
 0004:000023d0       ??_C@_0BJ@A@fftwf_codelet_hc2rIII_15?$AA@ 101a83d0     FFTW3f:codlist.obj
 0004:000023ec       ??_C@_0BJ@A@fftwf_codelet_hc2rIII_16?$AA@ 101a83ec     FFTW3f:codlist.obj
 0004:00002408       ??_C@_0BJ@A@fftwf_codelet_hc2rIII_32?$AA@ 101a8408     FFTW3f:codlist.obj
 0004:00002424       ??_C@_0BK@A@fftwf_codelet_mhc2rIII_32?$AA@ 101a8424     FFTW3f:codlist.obj
 0004:00002440       ??_C@_0BK@A@fftwf_codelet_mhc2rIII_64?$AA@ 101a8440     FFTW3f:codlist.obj
 0004:0000245c       ??_C@_0BF@A@fftwf_codelet_r2hc_2?$AA@ 101a845c     FFTW3f:codlist.obj
 0004:00002474       ??_C@_0BF@A@fftwf_codelet_r2hc_3?$AA@ 101a8474     FFTW3f:codlist.obj
 0004:0000248c       ??_C@_0BF@A@fftwf_codelet_r2hc_4?$AA@ 101a848c     FFTW3f:codlist.obj
 0004:000024a4       ??_C@_0BF@A@fftwf_codelet_r2hc_5?$AA@ 101a84a4     FFTW3f:codlist.obj
 0004:000024bc       ??_C@_0BF@A@fftwf_codelet_r2hc_6?$AA@ 101a84bc     FFTW3f:codlist.obj
 0004:000024d4       ??_C@_0BF@A@fftwf_codelet_r2hc_7?$AA@ 101a84d4     FFTW3f:codlist.obj
 0004:000024ec       ??_C@_0BF@A@fftwf_codelet_r2hc_8?$AA@ 101a84ec     FFTW3f:codlist.obj
 0004:00002504       ??_C@_0BF@A@fftwf_codelet_r2hc_9?$AA@ 101a8504     FFTW3f:codlist.obj
 0004:0000251c       ??_C@_0BG@A@fftwf_codelet_r2hc_10?$AA@ 101a851c     FFTW3f:codlist.obj
 0004:00002534       ??_C@_0BG@A@fftwf_codelet_r2hc_11?$AA@ 101a8534     FFTW3f:codlist.obj
 0004:0000254c       ??_C@_0BG@A@fftwf_codelet_r2hc_12?$AA@ 101a854c     FFTW3f:codlist.obj
 0004:00002564       ??_C@_0BG@A@fftwf_codelet_r2hc_13?$AA@ 101a8564     FFTW3f:codlist.obj
 0004:0000257c       ??_C@_0BG@A@fftwf_codelet_r2hc_14?$AA@ 101a857c     FFTW3f:codlist.obj
 0004:00002594       ??_C@_0BG@A@fftwf_codelet_r2hc_15?$AA@ 101a8594     FFTW3f:codlist.obj
 0004:000025ac       ??_C@_0BG@A@fftwf_codelet_r2hc_16?$AA@ 101a85ac     FFTW3f:codlist.obj
 0004:000025c4       ??_C@_0BG@A@fftwf_codelet_r2hc_32?$AA@ 101a85c4     FFTW3f:codlist.obj
 0004:000025dc       ??_C@_0BH@A@fftwf_codelet_mr2hc_32?$AA@ 101a85dc     FFTW3f:codlist.obj
 0004:000025f4       ??_C@_0BH@A@fftwf_codelet_mr2hc_64?$AA@ 101a85f4     FFTW3f:codlist.obj
 0004:0000260c       ??_C@_0BI@A@fftwf_codelet_mr2hc_128?$AA@ 101a860c     FFTW3f:codlist.obj
 0004:00002624       ??_C@_0BD@A@fftwf_codelet_hf_2?$AA@ 101a8624     FFTW3f:codlist.obj
 0004:00002638       ??_C@_0BD@A@fftwf_codelet_hf_3?$AA@ 101a8638     FFTW3f:codlist.obj
 0004:0000264c       ??_C@_0BD@A@fftwf_codelet_hf_4?$AA@ 101a864c     FFTW3f:codlist.obj
 0004:00002660       ??_C@_0BD@A@fftwf_codelet_hf_5?$AA@ 101a8660     FFTW3f:codlist.obj
 0004:00002674       ??_C@_0BD@A@fftwf_codelet_hf_6?$AA@ 101a8674     FFTW3f:codlist.obj
 0004:00002688       ??_C@_0BD@A@fftwf_codelet_hf_7?$AA@ 101a8688     FFTW3f:codlist.obj
 0004:0000269c       ??_C@_0BD@A@fftwf_codelet_hf_8?$AA@ 101a869c     FFTW3f:codlist.obj
 0004:000026b0       ??_C@_0BD@A@fftwf_codelet_hf_9?$AA@ 101a86b0     FFTW3f:codlist.obj
 0004:000026c4       ??_C@_0BE@A@fftwf_codelet_hf_10?$AA@ 101a86c4     FFTW3f:codlist.obj
 0004:000026d8       ??_C@_0BE@A@fftwf_codelet_hf_12?$AA@ 101a86d8     FFTW3f:codlist.obj
 0004:000026ec       ??_C@_0BE@A@fftwf_codelet_hf_15?$AA@ 101a86ec     FFTW3f:codlist.obj
 0004:00002700       ??_C@_0BE@A@fftwf_codelet_hf_16?$AA@ 101a8700     FFTW3f:codlist.obj
 0004:00002714       ??_C@_0BE@A@fftwf_codelet_hf_32?$AA@ 101a8714     FFTW3f:codlist.obj
 0004:00002728       ??_C@_0BE@A@fftwf_codelet_hf_64?$AA@ 101a8728     FFTW3f:codlist.obj
 0004:0000273c       ??_C@_0BE@A@fftwf_codelet_hf2_4?$AA@ 101a873c     FFTW3f:codlist.obj
 0004:00002750       ??_C@_0BE@A@fftwf_codelet_hf2_8?$AA@ 101a8750     FFTW3f:codlist.obj
 0004:00002764       ??_C@_0BF@A@fftwf_codelet_hf2_16?$AA@ 101a8764     FFTW3f:codlist.obj
 0004:0000277c       ??_C@_0BF@A@fftwf_codelet_hf2_32?$AA@ 101a877c     FFTW3f:codlist.obj
 0004:00002794       ??_C@_0BF@A@fftwf_codelet_hf2_64?$AA@ 101a8794     FFTW3f:codlist.obj
 0004:000027ac       ??_C@_0BH@A@fftwf_codelet_r2hcII_2?$AA@ 101a87ac     FFTW3f:codlist.obj
 0004:000027c4       ??_C@_0BH@A@fftwf_codelet_r2hcII_3?$AA@ 101a87c4     FFTW3f:codlist.obj
 0004:000027dc       ??_C@_0BH@A@fftwf_codelet_r2hcII_4?$AA@ 101a87dc     FFTW3f:codlist.obj
 0004:000027f4       ??_C@_0BH@A@fftwf_codelet_r2hcII_5?$AA@ 101a87f4     FFTW3f:codlist.obj
 0004:0000280c       ??_C@_0BH@A@fftwf_codelet_r2hcII_6?$AA@ 101a880c     FFTW3f:codlist.obj
 0004:00002824       ??_C@_0BH@A@fftwf_codelet_r2hcII_7?$AA@ 101a8824     FFTW3f:codlist.obj
 0004:0000283c       ??_C@_0BH@A@fftwf_codelet_r2hcII_8?$AA@ 101a883c     FFTW3f:codlist.obj
 0004:00002854       ??_C@_0BH@A@fftwf_codelet_r2hcII_9?$AA@ 101a8854     FFTW3f:codlist.obj
 0004:0000286c       ??_C@_0BI@A@fftwf_codelet_r2hcII_10?$AA@ 101a886c     FFTW3f:codlist.obj
 0004:00002884       ??_C@_0BI@A@fftwf_codelet_r2hcII_12?$AA@ 101a8884     FFTW3f:codlist.obj
 0004:0000289c       ??_C@_0BI@A@fftwf_codelet_r2hcII_15?$AA@ 101a889c     FFTW3f:codlist.obj
 0004:000028b4       ??_C@_0BI@A@fftwf_codelet_r2hcII_16?$AA@ 101a88b4     FFTW3f:codlist.obj
 0004:000028cc       ??_C@_0BI@A@fftwf_codelet_r2hcII_32?$AA@ 101a88cc     FFTW3f:codlist.obj
 0004:000028e4       ??_C@_0BJ@A@fftwf_codelet_mr2hcII_32?$AA@ 101a88e4     FFTW3f:codlist.obj
 0004:00002900       ??_C@_0BJ@A@fftwf_codelet_mr2hcII_64?$AA@ 101a8900     FFTW3f:codlist.obj
 0004:00002930       ??_C@_0CF@FMPANHAO@?$CIredft00e?9r2hc?9pad?9?$CFd?$CFv?$CF?$CI?$CFp?$CF?$CJ?$CF?$CI?$CF@ 101a8930     FFTW3f:redft00e-r2hc-pad.obj
 0004:00002970       ??_C@_0CF@FMPANHAO@?$CIrodft00e?9r2hc?9pad?9?$CFd?$CFv?$CF?$CI?$CFp?$CF?$CJ?$CF?$CI?$CF@ 101a8970     FFTW3f:rodft00e-r2hc-pad.obj
 0004:000029bc       ??_C@_0BG@A@?$CI?$CFse?9r2hc?9?$CFd?$CFv?$CF?$CI?$CFp?$CF?$CJ?$CJ?$AA@ 101a89bc     FFTW3f:reodft010e-r2hc.obj
 0004:00002a08       ??_C@_0BN@A@?$CI?$CFse?9radix2?9r2hc?9?$CFd?$CFv?$CF?$CI?$CFp?$CF?$CJ?$CJ?$AA@ 101a8a08     FFTW3f:reodft11e-radix2.obj
 0004:00002a40       ??_C@_0BK@A@?$CI?$CFse?9r2hc?9odd?9?$CFd?$CFv?$CF?$CI?$CFp?$CF?$CJ?$CJ?$AA@ 101a8a40     FFTW3f:reodft11e-r2hc-odd.obj
 0004:00002ac0       ??_C@_06A@n1fv_2?$AA@      101a8ac0     FFTW3f:n1fv_2.obj
 0004:00002b40       ??_C@_06A@n1fv_3?$AA@      101a8b40     FFTW3f:n1fv_3.obj
 0004:00002ba0       ??_C@_06A@n1fv_4?$AA@      101a8ba0     FFTW3f:n1fv_4.obj
 0004:00002c40       ??_C@_06A@n1fv_5?$AA@      101a8c40     FFTW3f:n1fv_5.obj
 0004:00002cc0       ??_C@_06A@n1fv_6?$AA@      101a8cc0     FFTW3f:n1fv_6.obj
 0004:00002d80       ??_C@_06A@n1fv_7?$AA@      101a8d80     FFTW3f:n1fv_7.obj
 0004:00002e00       ??_C@_06A@n1fv_8?$AA@      101a8e00     FFTW3f:n1fv_8.obj
 0004:00002f40       ??_C@_06A@n1fv_9?$AA@      101a8f40     FFTW3f:n1fv_9.obj
 0004:00002fe0       ??_C@_07A@n1fv_10?$AA@     101a8fe0     FFTW3f:n1fv_10.obj
 0004:000030e0       ??_C@_07A@n1fv_11?$AA@     101a90e0     FFTW3f:n1fv_11.obj
 0004:00003160       ??_C@_07A@n1fv_12?$AA@     101a9160     FFTW3f:n1fv_12.obj
 0004:00003300       ??_C@_07A@n1fv_13?$AA@     101a9300     FFTW3f:n1fv_13.obj
 0004:000033c0       ??_C@_07A@n1fv_14?$AA@     101a93c0     FFTW3f:n1fv_14.obj
 0004:000034c0       ??_C@_07A@n1fv_15?$AA@     101a94c0     FFTW3f:n1fv_15.obj
 0004:00003560       ??_C@_07A@n1fv_16?$AA@     101a9560     FFTW3f:n1fv_16.obj
 0004:000035c0       ??_C@_06A@n1bv_2?$AA@      101a95c0     FFTW3f:n1bv_2.obj
 0004:00003640       ??_C@_06A@n1bv_3?$AA@      101a9640     FFTW3f:n1bv_3.obj
 0004:000036a0       ??_C@_06A@n1bv_4?$AA@      101a96a0     FFTW3f:n1bv_4.obj
 0004:00003740       ??_C@_06A@n1bv_5?$AA@      101a9740     FFTW3f:n1bv_5.obj
 0004:000037c0       ??_C@_06A@n1bv_6?$AA@      101a97c0     FFTW3f:n1bv_6.obj
 0004:00003880       ??_C@_06A@n1bv_7?$AA@      101a9880     FFTW3f:n1bv_7.obj
 0004:00003900       ??_C@_06A@n1bv_8?$AA@      101a9900     FFTW3f:n1bv_8.obj
 0004:00003a40       ??_C@_06A@n1bv_9?$AA@      101a9a40     FFTW3f:n1bv_9.obj
 0004:00003ae0       ??_C@_07A@n1bv_10?$AA@     101a9ae0     FFTW3f:n1bv_10.obj
 0004:00003be0       ??_C@_07A@n1bv_11?$AA@     101a9be0     FFTW3f:n1bv_11.obj
 0004:00003c60       ??_C@_07A@n1bv_12?$AA@     101a9c60     FFTW3f:n1bv_12.obj
 0004:00003e00       ??_C@_07A@n1bv_13?$AA@     101a9e00     FFTW3f:n1bv_13.obj
 0004:00003ec0       ??_C@_07A@n1bv_14?$AA@     101a9ec0     FFTW3f:n1bv_14.obj
 0004:00003fc0       ??_C@_07A@n1bv_15?$AA@     101a9fc0     FFTW3f:n1bv_15.obj
 0004:00004060       ??_C@_07A@n1bv_16?$AA@     101aa060     FFTW3f:n1bv_16.obj
 0004:000040c0       ??_C@_06A@n2fv_2?$AA@      101aa0c0     FFTW3f:n2fv_2.obj
 0004:00004140       ??_C@_06A@n2fv_3?$AA@      101aa140     FFTW3f:n2fv_3.obj
 0004:000041a0       ??_C@_06A@n2fv_4?$AA@      101aa1a0     FFTW3f:n2fv_4.obj
 0004:00004240       ??_C@_06A@n2fv_5?$AA@      101aa240     FFTW3f:n2fv_5.obj
 0004:000042c0       ??_C@_06A@n2fv_6?$AA@      101aa2c0     FFTW3f:n2fv_6.obj
 0004:00004380       ??_C@_06A@n2fv_7?$AA@      101aa380     FFTW3f:n2fv_7.obj
 0004:00004400       ??_C@_06A@n2fv_8?$AA@      101aa400     FFTW3f:n2fv_8.obj
 0004:00004540       ??_C@_06A@n2fv_9?$AA@      101aa540     FFTW3f:n2fv_9.obj
 0004:000045e0       ??_C@_07A@n2fv_10?$AA@     101aa5e0     FFTW3f:n2fv_10.obj
 0004:000046e0       ??_C@_07A@n2fv_11?$AA@     101aa6e0     FFTW3f:n2fv_11.obj
 0004:00004760       ??_C@_07A@n2fv_12?$AA@     101aa760     FFTW3f:n2fv_12.obj
 0004:00004900       ??_C@_07A@n2fv_13?$AA@     101aa900     FFTW3f:n2fv_13.obj
 0004:000049c0       ??_C@_07A@n2fv_14?$AA@     101aa9c0     FFTW3f:n2fv_14.obj
 0004:00004ac0       ??_C@_07A@n2fv_15?$AA@     101aaac0     FFTW3f:n2fv_15.obj
 0004:00004b60       ??_C@_07A@n2fv_16?$AA@     101aab60     FFTW3f:n2fv_16.obj
 0004:00004bc0       ??_C@_06A@n2bv_2?$AA@      101aabc0     FFTW3f:n2bv_2.obj
 0004:00004c40       ??_C@_06A@n2bv_3?$AA@      101aac40     FFTW3f:n2bv_3.obj
 0004:00004ca0       ??_C@_06A@n2bv_4?$AA@      101aaca0     FFTW3f:n2bv_4.obj
 0004:00004d40       ??_C@_06A@n2bv_5?$AA@      101aad40     FFTW3f:n2bv_5.obj
 0004:00004dc0       ??_C@_06A@n2bv_6?$AA@      101aadc0     FFTW3f:n2bv_6.obj
 0004:00004e80       ??_C@_06A@n2bv_7?$AA@      101aae80     FFTW3f:n2bv_7.obj
 0004:00004f00       ??_C@_06A@n2bv_8?$AA@      101aaf00     FFTW3f:n2bv_8.obj
 0004:00005040       ??_C@_06A@n2bv_9?$AA@      101ab040     FFTW3f:n2bv_9.obj
 0004:000050e0       ??_C@_07A@n2bv_10?$AA@     101ab0e0     FFTW3f:n2bv_10.obj
 0004:000051e0       ??_C@_07A@n2bv_11?$AA@     101ab1e0     FFTW3f:n2bv_11.obj
 0004:00005260       ??_C@_07A@n2bv_12?$AA@     101ab260     FFTW3f:n2bv_12.obj
 0004:00005400       ??_C@_07A@n2bv_13?$AA@     101ab400     FFTW3f:n2bv_13.obj
 0004:000054c0       ??_C@_07A@n2bv_14?$AA@     101ab4c0     FFTW3f:n2bv_14.obj
 0004:000055c0       ??_C@_07A@n2bv_15?$AA@     101ab5c0     FFTW3f:n2bv_15.obj
 0004:00005660       ??_C@_07A@n2bv_16?$AA@     101ab660     FFTW3f:n2bv_16.obj
 0004:00005700       ??_C@_07A@m1fv_16?$AA@     101ab700     FFTW3f:m1fv_16.obj
 0004:000057e0       ??_C@_07A@m1fv_32?$AA@     101ab7e0     FFTW3f:m1fv_32.obj
 0004:00005940       ??_C@_07A@m1fv_64?$AA@     101ab940     FFTW3f:m1fv_64.obj
 0004:000059e0       ??_C@_07A@m1bv_16?$AA@     101ab9e0     FFTW3f:m1bv_16.obj
 0004:00005ac0       ??_C@_07A@m1bv_32?$AA@     101abac0     FFTW3f:m1bv_32.obj
 0004:00005c20       ??_C@_07A@m1bv_64?$AA@     101abc20     FFTW3f:m1bv_64.obj
 0004:00005cc0       ??_C@_07A@m2fv_16?$AA@     101abcc0     FFTW3f:m2fv_16.obj
 0004:00005da0       ??_C@_07A@m2fv_32?$AA@     101abda0     FFTW3f:m2fv_32.obj
 0004:00005f00       ??_C@_07A@m2fv_64?$AA@     101abf00     FFTW3f:m2fv_64.obj
 0004:00005fa0       ??_C@_07A@m2bv_16?$AA@     101abfa0     FFTW3f:m2bv_16.obj
 0004:00006080       ??_C@_07A@m2bv_32?$AA@     101ac080     FFTW3f:m2bv_32.obj
 0004:000061e0       ??_C@_07A@m2bv_64?$AA@     101ac1e0     FFTW3f:m2bv_64.obj
 0004:00006240       ??_C@_06A@t1fv_2?$AA@      101ac240     FFTW3f:t1fv_2.obj
 0004:000062c0       ??_C@_06A@t1fv_3?$AA@      101ac2c0     FFTW3f:t1fv_3.obj
 0004:00006320       ??_C@_06A@t1fv_4?$AA@      101ac320     FFTW3f:t1fv_4.obj
 0004:000063c0       ??_C@_06A@t1fv_5?$AA@      101ac3c0     FFTW3f:t1fv_5.obj
 0004:00006440       ??_C@_06A@t1fv_6?$AA@      101ac440     FFTW3f:t1fv_6.obj
 0004:00006500       ??_C@_06A@t1fv_7?$AA@      101ac500     FFTW3f:t1fv_7.obj
 0004:00006580       ??_C@_06A@t1fv_8?$AA@      101ac580     FFTW3f:t1fv_8.obj
 0004:000066c0       ??_C@_06A@t1fv_9?$AA@      101ac6c0     FFTW3f:t1fv_9.obj
 0004:00006760       ??_C@_07A@t1fv_10?$AA@     101ac760     FFTW3f:t1fv_10.obj
 0004:000067e0       ??_C@_07A@t1fv_12?$AA@     101ac7e0     FFTW3f:t1fv_12.obj
 0004:000068e0       ??_C@_07A@t1fv_15?$AA@     101ac8e0     FFTW3f:t1fv_15.obj
 0004:00006980       ??_C@_07A@t1fv_16?$AA@     101ac980     FFTW3f:t1fv_16.obj
 0004:00006a60       ??_C@_07A@t1fv_32?$AA@     101aca60     FFTW3f:t1fv_32.obj
 0004:00006bc0       ??_C@_07A@t1fv_64?$AA@     101acbc0     FFTW3f:t1fv_64.obj
 0004:00006c20       ??_C@_06A@t1bv_2?$AA@      101acc20     FFTW3f:t1bv_2.obj
 0004:00006ca0       ??_C@_06A@t1bv_3?$AA@      101acca0     FFTW3f:t1bv_3.obj
 0004:00006d00       ??_C@_06A@t1bv_4?$AA@      101acd00     FFTW3f:t1bv_4.obj
 0004:00006da0       ??_C@_06A@t1bv_5?$AA@      101acda0     FFTW3f:t1bv_5.obj
 0004:00006e20       ??_C@_06A@t1bv_6?$AA@      101ace20     FFTW3f:t1bv_6.obj
 0004:00006ee0       ??_C@_06A@t1bv_7?$AA@      101acee0     FFTW3f:t1bv_7.obj
 0004:00006f60       ??_C@_06A@t1bv_8?$AA@      101acf60     FFTW3f:t1bv_8.obj
 0004:000070a0       ??_C@_06A@t1bv_9?$AA@      101ad0a0     FFTW3f:t1bv_9.obj
 0004:00007140       ??_C@_07A@t1bv_10?$AA@     101ad140     FFTW3f:t1bv_10.obj
 0004:000071c0       ??_C@_07A@t1bv_12?$AA@     101ad1c0     FFTW3f:t1bv_12.obj
 0004:000072c0       ??_C@_07A@t1bv_15?$AA@     101ad2c0     FFTW3f:t1bv_15.obj
 0004:00007360       ??_C@_07A@t1bv_16?$AA@     101ad360     FFTW3f:t1bv_16.obj
 0004:00007440       ??_C@_07A@t1bv_32?$AA@     101ad440     FFTW3f:t1bv_32.obj
 0004:000075a0       ??_C@_07A@t1bv_64?$AA@     101ad5a0     FFTW3f:t1bv_64.obj
 0004:00007600       ??_C@_06A@q1fv_2?$AA@      101ad600     FFTW3f:q1fv_2.obj
 0004:00007660       ??_C@_06A@q1fv_4?$AA@      101ad660     FFTW3f:q1fv_4.obj
 0004:000076e0       ??_C@_06A@q1fv_8?$AA@      101ad6e0     FFTW3f:q1fv_8.obj
 0004:00007740       ??_C@_06A@q1bv_2?$AA@      101ad740     FFTW3f:q1bv_2.obj
 0004:000077a0       ??_C@_06A@q1bv_4?$AA@      101ad7a0     FFTW3f:q1bv_4.obj
 0004:00007820       ??_C@_06A@q1bv_8?$AA@      101ad820     FFTW3f:q1bv_8.obj
 0004:00007880       ??_C@_04A@q1_2?$AA@        101ad880     FFTW3f:q1_2.obj
 0004:000078e0       ??_C@_04A@q1_4?$AA@        101ad8e0     FFTW3f:q1_4.obj
 0004:00007960       ??_C@_04A@q1_8?$AA@        101ad960     FFTW3f:q1_8.obj
 0004:000079e0       ??_C@_04A@q1_3?$AA@        101ad9e0     FFTW3f:q1_3.obj
 0004:00007a60       ??_C@_04A@q1_5?$AA@        101ada60     FFTW3f:q1_5.obj
 0004:00007ae0       ??_C@_04A@q1_6?$AA@        101adae0     FFTW3f:q1_6.obj
 0004:00007b40       ??_C@_04A@n1_2?$AA@        101adb40     FFTW3f:n1_2.obj
 0004:00007bc0       ??_C@_04A@n1_3?$AA@        101adbc0     FFTW3f:n1_3.obj
 0004:00007c20       ??_C@_04A@n1_4?$AA@        101adc20     FFTW3f:n1_4.obj
 0004:00007ca0       ??_C@_04A@n1_5?$AA@        101adca0     FFTW3f:n1_5.obj
 0004:00007d20       ??_C@_04A@n1_6?$AA@        101add20     FFTW3f:n1_6.obj
 0004:00007da0       ??_C@_04A@n1_7?$AA@        101adda0     FFTW3f:n1_7.obj
 0004:00007e20       ??_C@_04A@n1_8?$AA@        101ade20     FFTW3f:n1_8.obj
 0004:00007ec0       ??_C@_04A@n1_9?$AA@        101adec0     FFTW3f:n1_9.obj
 0004:00007f40       ??_C@_05A@n1_10?$AA@       101adf40     FFTW3f:n1_10.obj
 0004:00008000       ??_C@_05A@n1_11?$AA@       101ae000     FFTW3f:n1_11.obj
 0004:00008080       ??_C@_05A@n1_12?$AA@       101ae080     FFTW3f:n1_12.obj
 0004:00008160       ??_C@_05A@n1_13?$AA@       101ae160     FFTW3f:n1_13.obj
 0004:00008200       ??_C@_05A@n1_14?$AA@       101ae200     FFTW3f:n1_14.obj
 0004:00008280       ??_C@_05A@n1_15?$AA@       101ae280     FFTW3f:n1_15.obj
 0004:00008300       ??_C@_05A@n1_16?$AA@       101ae300     FFTW3f:n1_16.obj
 0004:00008380       ??_C@_05A@m1_16?$AA@       101ae380     FFTW3f:m1_16.obj
 0004:00008400       ??_C@_05A@m1_32?$AA@       101ae400     FFTW3f:m1_32.obj
 0004:000084a0       ??_C@_05A@m1_64?$AA@       101ae4a0     FFTW3f:m1_64.obj
 0004:00008500       ??_C@_04A@t1_2?$AA@        101ae500     FFTW3f:t1_2.obj
 0004:00008580       ??_C@_04A@t1_3?$AA@        101ae580     FFTW3f:t1_3.obj
 0004:000085e0       ??_C@_04A@t1_4?$AA@        101ae5e0     FFTW3f:t1_4.obj
 0004:00008660       ??_C@_04A@t1_5?$AA@        101ae660     FFTW3f:t1_5.obj
 0004:000086e0       ??_C@_04A@t1_6?$AA@        101ae6e0     FFTW3f:t1_6.obj
 0004:00008760       ??_C@_04A@t1_7?$AA@        101ae760     FFTW3f:t1_7.obj
 0004:000087e0       ??_C@_04A@t1_8?$AA@        101ae7e0     FFTW3f:t1_8.obj
 0004:00008880       ??_C@_04A@t1_9?$AA@        101ae880     FFTW3f:t1_9.obj
 0004:00008900       ??_C@_05A@t1_10?$AA@       101ae900     FFTW3f:t1_10.obj
 0004:00008980       ??_C@_05A@t1_12?$AA@       101ae980     FFTW3f:t1_12.obj
 0004:00008a00       ??_C@_05A@t1_15?$AA@       101aea00     FFTW3f:t1_15.obj
 0004:00008a80       ??_C@_05A@t1_16?$AA@       101aea80     FFTW3f:t1_16.obj
 0004:00008b20       ??_C@_05A@t1_32?$AA@       101aeb20     FFTW3f:t1_32.obj
 0004:00008c00       ??_C@_05A@t1_64?$AA@       101aec00     FFTW3f:t1_64.obj
 0004:00008c60       ??_C@_04A@t2_4?$AA@        101aec60     FFTW3f:t2_4.obj
 0004:00008ce0       ??_C@_04A@t2_8?$AA@        101aece0     FFTW3f:t2_8.obj
 0004:00008d60       ??_C@_05A@t2_16?$AA@       101aed60     FFTW3f:t2_16.obj
 0004:00008e00       ??_C@_05A@t2_32?$AA@       101aee00     FFTW3f:t2_32.obj
 0004:00008ee0       ??_C@_05A@t2_64?$AA@       101aeee0     FFTW3f:t2_64.obj
 0004:00008f60       ??_C@_05A@e01_8?$AA@       101aef60     FFTW3f:e01_8.obj
 0004:00009000       ??_C@_05A@e10_8?$AA@       101af000     FFTW3f:e10_8.obj
 0004:00009080       ??_C@_06A@hc2r_3?$AA@      101af080     FFTW3f:hc2r_3.obj
 0004:00009100       ??_C@_06A@hc2r_4?$AA@      101af100     FFTW3f:hc2r_4.obj
 0004:00009180       ??_C@_06A@hc2r_5?$AA@      101af180     FFTW3f:hc2r_5.obj
 0004:00009200       ??_C@_06A@hc2r_6?$AA@      101af200     FFTW3f:hc2r_6.obj
 0004:000092a0       ??_C@_06A@hc2r_7?$AA@      101af2a0     FFTW3f:hc2r_7.obj
 0004:00009320       ??_C@_06A@hc2r_8?$AA@      101af320     FFTW3f:hc2r_8.obj
 0004:000093c0       ??_C@_06A@hc2r_9?$AA@      101af3c0     FFTW3f:hc2r_9.obj
 0004:00009440       ??_C@_07A@hc2r_10?$AA@     101af440     FFTW3f:hc2r_10.obj
 0004:00009500       ??_C@_07A@hc2r_11?$AA@     101af500     FFTW3f:hc2r_11.obj
 0004:00009580       ??_C@_07A@hc2r_12?$AA@     101af580     FFTW3f:hc2r_12.obj
 0004:00009640       ??_C@_07A@hc2r_13?$AA@     101af640     FFTW3f:hc2r_13.obj
 0004:000096e0       ??_C@_07A@hc2r_14?$AA@     101af6e0     FFTW3f:hc2r_14.obj
 0004:00009780       ??_C@_07A@hc2r_15?$AA@     101af780     FFTW3f:hc2r_15.obj
 0004:00009800       ??_C@_07A@hc2r_16?$AA@     101af800     FFTW3f:hc2r_16.obj
 0004:000098a0       ??_C@_07A@hc2r_32?$AA@     101af8a0     FFTW3f:hc2r_32.obj
 0004:00009940       ??_C@_08A@mhc2r_32?$AA@    101af940     FFTW3f:mhc2r_32.obj
 0004:00009a00       ??_C@_08A@mhc2r_64?$AA@    101afa00     FFTW3f:mhc2r_64.obj
 0004:00009b00       ??_C@_09A@mhc2r_128?$AA@   101afb00     FFTW3f:mhc2r_128.obj
 0004:00009b60       ??_C@_04A@hb_2?$AA@        101afb60     FFTW3f:hb_2.obj
 0004:00009be0       ??_C@_04A@hb_3?$AA@        101afbe0     FFTW3f:hb_3.obj
 0004:00009c40       ??_C@_04A@hb_4?$AA@        101afc40     FFTW3f:hb_4.obj
 0004:00009cc0       ??_C@_04A@hb_5?$AA@        101afcc0     FFTW3f:hb_5.obj
 0004:00009d40       ??_C@_04A@hb_6?$AA@        101afd40     FFTW3f:hb_6.obj
 0004:00009de0       ??_C@_04A@hb_7?$AA@        101afde0     FFTW3f:hb_7.obj
 0004:00009e60       ??_C@_04A@hb_8?$AA@        101afe60     FFTW3f:hb_8.obj
 0004:00009f00       ??_C@_04A@hb_9?$AA@        101aff00     FFTW3f:hb_9.obj
 0004:00009f80       ??_C@_05A@hb_10?$AA@       101aff80     FFTW3f:hb_10.obj
 0004:0000a000       ??_C@_05A@hb_12?$AA@       101b0000     FFTW3f:hb_12.obj
 0004:0000a080       ??_C@_05A@hb_15?$AA@       101b0080     FFTW3f:hb_15.obj
 0004:0000a100       ??_C@_05A@hb_16?$AA@       101b0100     FFTW3f:hb_16.obj
 0004:0000a1a0       ??_C@_05A@hb_32?$AA@       101b01a0     FFTW3f:hb_32.obj
 0004:0000a260       ??_C@_05A@hb_64?$AA@       101b0260     FFTW3f:hb_64.obj
 0004:0000a2e0       ??_C@_09A@hc2rIII_2?$AA@   101b02e0     FFTW3f:hc2rIII_2.obj
 0004:0000a360       ??_C@_09A@hc2rIII_3?$AA@   101b0360     FFTW3f:hc2rIII_3.obj
 0004:0000a3e0       ??_C@_09A@hc2rIII_4?$AA@   101b03e0     FFTW3f:hc2rIII_4.obj
 0004:0000a460       ??_C@_09A@hc2rIII_5?$AA@   101b0460     FFTW3f:hc2rIII_5.obj
 0004:0000a4e0       ??_C@_09A@hc2rIII_6?$AA@   101b04e0     FFTW3f:hc2rIII_6.obj
 0004:0000a580       ??_C@_09A@hc2rIII_7?$AA@   101b0580     FFTW3f:hc2rIII_7.obj
 0004:0000a600       ??_C@_09A@hc2rIII_8?$AA@   101b0600     FFTW3f:hc2rIII_8.obj
 0004:0000a6a0       ??_C@_09A@hc2rIII_9?$AA@   101b06a0     FFTW3f:hc2rIII_9.obj
 0004:0000a720       ??_C@_0L@A@hc2rIII_10?$AA@ 101b0720     FFTW3f:hc2rIII_10.obj
 0004:0000a7a0       ??_C@_0L@A@hc2rIII_12?$AA@ 101b07a0     FFTW3f:hc2rIII_12.obj
 0004:0000a860       ??_C@_0L@A@hc2rIII_15?$AA@ 101b0860     FFTW3f:hc2rIII_15.obj
 0004:0000a900       ??_C@_0L@A@hc2rIII_16?$AA@ 101b0900     FFTW3f:hc2rIII_16.obj
 0004:0000aa00       ??_C@_0L@A@hc2rIII_32?$AA@ 101b0a00     FFTW3f:hc2rIII_32.obj
 0004:0000aac0       ??_C@_0M@A@mhc2rIII_32?$AA@ 101b0ac0     FFTW3f:mhc2rIII_32.obj
 0004:0000abc0       ??_C@_0M@A@mhc2rIII_64?$AA@ 101b0bc0     FFTW3f:mhc2rIII_64.obj
 0004:0000ac20       ??_C@_06A@r2hc_2?$AA@      101b0c20     FFTW3f:r2hc_2.obj
 0004:0000aca0       ??_C@_06A@r2hc_3?$AA@      101b0ca0     FFTW3f:r2hc_3.obj
 0004:0000ad00       ??_C@_06A@r2hc_4?$AA@      101b0d00     FFTW3f:r2hc_4.obj
 0004:0000ad80       ??_C@_06A@r2hc_5?$AA@      101b0d80     FFTW3f:r2hc_5.obj
 0004:0000ae00       ??_C@_06A@r2hc_6?$AA@      101b0e00     FFTW3f:r2hc_6.obj
 0004:0000ae80       ??_C@_06A@r2hc_7?$AA@      101b0e80     FFTW3f:r2hc_7.obj
 0004:0000af00       ??_C@_06A@r2hc_8?$AA@      101b0f00     FFTW3f:r2hc_8.obj
 0004:0000afa0       ??_C@_06A@r2hc_9?$AA@      101b0fa0     FFTW3f:r2hc_9.obj
 0004:0000b020       ??_C@_07A@r2hc_10?$AA@     101b1020     FFTW3f:r2hc_10.obj
 0004:0000b0e0       ??_C@_07A@r2hc_11?$AA@     101b10e0     FFTW3f:r2hc_11.obj
 0004:0000b160       ??_C@_07A@r2hc_12?$AA@     101b1160     FFTW3f:r2hc_12.obj
 0004:0000b220       ??_C@_07A@r2hc_13?$AA@     101b1220     FFTW3f:r2hc_13.obj
 0004:0000b2c0       ??_C@_07A@r2hc_14?$AA@     101b12c0     FFTW3f:r2hc_14.obj
 0004:0000b360       ??_C@_07A@r2hc_15?$AA@     101b1360     FFTW3f:r2hc_15.obj
 0004:0000b3e0       ??_C@_07A@r2hc_16?$AA@     101b13e0     FFTW3f:r2hc_16.obj
 0004:0000b480       ??_C@_07A@r2hc_32?$AA@     101b1480     FFTW3f:r2hc_32.obj
 0004:0000b500       ??_C@_08A@mr2hc_32?$AA@    101b1500     FFTW3f:mr2hc_32.obj
 0004:0000b5a0       ??_C@_08A@mr2hc_64?$AA@    101b15a0     FFTW3f:mr2hc_64.obj
 0004:0000b680       ??_C@_09A@mr2hc_128?$AA@   101b1680     FFTW3f:mr2hc_128.obj
 0004:0000b6e0       ??_C@_04A@hf_2?$AA@        101b16e0     FFTW3f:hf_2.obj
 0004:0000b760       ??_C@_04A@hf_3?$AA@        101b1760     FFTW3f:hf_3.obj
 0004:0000b7c0       ??_C@_04A@hf_4?$AA@        101b17c0     FFTW3f:hf_4.obj
 0004:0000b840       ??_C@_04A@hf_5?$AA@        101b1840     FFTW3f:hf_5.obj
 0004:0000b8c0       ??_C@_04A@hf_6?$AA@        101b18c0     FFTW3f:hf_6.obj
 0004:0000b940       ??_C@_04A@hf_7?$AA@        101b1940     FFTW3f:hf_7.obj
 0004:0000b9c0       ??_C@_04A@hf_8?$AA@        101b19c0     FFTW3f:hf_8.obj
 0004:0000ba60       ??_C@_04A@hf_9?$AA@        101b1a60     FFTW3f:hf_9.obj
 0004:0000bae0       ??_C@_05A@hf_10?$AA@       101b1ae0     FFTW3f:hf_10.obj
 0004:0000bb60       ??_C@_05A@hf_12?$AA@       101b1b60     FFTW3f:hf_12.obj
 0004:0000bc00       ??_C@_05A@hf_15?$AA@       101b1c00     FFTW3f:hf_15.obj
 0004:0000bc80       ??_C@_05A@hf_16?$AA@       101b1c80     FFTW3f:hf_16.obj
 0004:0000bd20       ??_C@_05A@hf_32?$AA@       101b1d20     FFTW3f:hf_32.obj
 0004:0000be00       ??_C@_05A@hf_64?$AA@       101b1e00     FFTW3f:hf_64.obj
 0004:0000be60       ??_C@_05A@hf2_4?$AA@       101b1e60     FFTW3f:hf2_4.obj
 0004:0000bee0       ??_C@_05A@hf2_8?$AA@       101b1ee0     FFTW3f:hf2_8.obj
 0004:0000bf60       ??_C@_06A@hf2_16?$AA@      101b1f60     FFTW3f:hf2_16.obj
 0004:0000c000       ??_C@_06A@hf2_32?$AA@      101b2000     FFTW3f:hf2_32.obj
 0004:0000c0e0       ??_C@_06A@hf2_64?$AA@      101b20e0     FFTW3f:hf2_64.obj
 0004:0000c140       ??_C@_08A@r2hcII_2?$AA@    101b2140     FFTW3f:r2hcII_2.obj
 0004:0000c1c0       ??_C@_08A@r2hcII_3?$AA@    101b21c0     FFTW3f:r2hcII_3.obj
 0004:0000c240       ??_C@_08A@r2hcII_4?$AA@    101b2240     FFTW3f:r2hcII_4.obj
 0004:0000c2c0       ??_C@_08A@r2hcII_5?$AA@    101b22c0     FFTW3f:r2hcII_5.obj
 0004:0000c340       ??_C@_08A@r2hcII_6?$AA@    101b2340     FFTW3f:r2hcII_6.obj
 0004:0000c3e0       ??_C@_08A@r2hcII_7?$AA@    101b23e0     FFTW3f:r2hcII_7.obj
 0004:0000c460       ??_C@_08A@r2hcII_8?$AA@    101b2460     FFTW3f:r2hcII_8.obj
 0004:0000c500       ??_C@_08A@r2hcII_9?$AA@    101b2500     FFTW3f:r2hcII_9.obj
 0004:0000c580       ??_C@_09A@r2hcII_10?$AA@   101b2580     FFTW3f:r2hcII_10.obj
 0004:0000c600       ??_C@_09A@r2hcII_12?$AA@   101b2600     FFTW3f:r2hcII_12.obj
 0004:0000c6a0       ??_C@_09A@r2hcII_15?$AA@   101b26a0     FFTW3f:r2hcII_15.obj
 0004:0000c740       ??_C@_09A@r2hcII_16?$AA@   101b2740     FFTW3f:r2hcII_16.obj
 0004:0000c820       ??_C@_09A@r2hcII_32?$AA@   101b2820     FFTW3f:r2hcII_32.obj
 0004:0000c8c0       ??_C@_0L@A@mr2hcII_32?$AA@ 101b28c0     FFTW3f:mr2hcII_32.obj
 0004:0000c9a0       ??_C@_0L@A@mr2hcII_64?$AA@ 101b29a0     FFTW3f:mr2hcII_64.obj
 0004:0000c9d0       _fftwf_dft_n1fsimd_genus   101b29d0     FFTW3f:n1f.obj
 0004:0000c9e0       _fftwf_sse_mpmp            101b29e0     FFTW3f:sse-aux.obj
 0004:0000c9f0       _fftwf_dft_n1bsimd_genus   101b29f0     FFTW3f:n1b.obj
 0004:0000c9f8       _fftwf_dft_n2fsimd_genus   101b29f8     FFTW3f:n2f.obj
 0004:0000ca00       _fftwf_dft_n2bsimd_genus   101b2a00     FFTW3f:n2b.obj
 0004:0000ca08       _fftwf_dft_t1fsimd_genus   101b2a08     FFTW3f:t1f.obj
 0004:0000ca10       _fftwf_dft_t1bsimd_genus   101b2a10     FFTW3f:t1b.obj
 0004:0000ca18       _fftwf_dft_q1fsimd_genus   101b2a18     FFTW3f:q1f.obj
 0004:0000ca20       _fftwf_dft_q1bsimd_genus   101b2a20     FFTW3f:q1b.obj
 0004:0000ca28       _fftwf_dft_t_genus         101b2a28     FFTW3f:t.obj
 0004:0000ca30       _fftwf_dft_n_genus         101b2a30     FFTW3f:n.obj
 0004:0000ca38       _fftwf_rdft_r2r_genus      101b2a38     FFTW3f:r2r.obj
 0004:0000ca40       _fftwf_rdft_hc2r_genus     101b2a40     FFTW3f:hc2r.obj
 0004:0000ca4c       _fftwf_rdft_hc2rIII_genus  101b2a4c     FFTW3f:hc2r.obj
 0004:0000ca58       _fftwf_rdft_hf_genus       101b2a58     FFTW3f:hfb.obj
 0004:0000ca64       _fftwf_rdft_hb_genus       101b2a64     FFTW3f:hfb.obj
 0004:0000ca70       _fftwf_rdft_r2hc_genus     101b2a70     FFTW3f:r2hc.obj
 0004:0000ca7c       _fftwf_rdft_r2hcII_genus   101b2a7c     FFTW3f:r2hc.obj
 0004:0000ca88       ??_C@_0BG@A@ALIGNED?$CI?$CGX?$CIsse_mpmp?$CJ?$CJ?$AA@ 101b2a88     FFTW3f:sse.obj
 0004:0000caa0       ??_C@_0CG@PNJJBJEC@C?3?2src?2fftw3win32?2fftw?93?40?2simd?2@ 101b2aa0     FFTW3f:sse.obj
 0004:0000cadc       ??_C@_0BH@A@?$CIdft?9direct?9?$CFd?$CFv?5?$CC?$CFs?$CC?$CJ?$AA@ 101b2adc     FFTW3f:direct.obj
 0004:0000cb58       ??_C@_0BL@A@?$CIrdft?9?$CFs?9direct?9?$CFd?$CFv?5?$CC?$CFs?$CC?$CJ?$AA@ 101b2b58     FFTW3f:direct.obj
 0004:0000cb90       ??_C@_0BM@A@?$CIrdft2?9?$CFs?9direct?9?$CFd?$CFv?5?$CC?$CFs?$CC?$CJ?$AA@ 101b2b90     FFTW3f:direct2.obj
 0004:0000cc1c       ??_C@_0BI@A@?$CI?$CFs?9?$CFd?1?$CFd?$CFv?5?$CC?$CFs?$CC?$CF?$CI?$CFp?$CF?$CJ?$CJ?$AA@ 101b2c1c     FFTW3f:ct.obj
 0004:0000cc44       ??_C@_0CE@ICIDIP@?$CI?$CFs?9?$CFd?1?$CFd?$CFv?5?$CC?$CFs?$CC?$CF?$CI?$CFp?$CF?$CJ?$CF?$CI?$CFp?$CF?$CJ?$CF?$CI?$CFp@ 101b2c44     FFTW3f:hc2hc.obj
 0004:0000ce48       ??_C@_0BJ@A@?$CIFFTW?93?401?5fftw_wisdom?$CF?$CI?$AA@ 101b2e48     FFTW3d:planner.obj
 0004:0000ce64       ??_C@_0BH@A@?$CIFFTW?93?401?5fftw_wisdom?$AA@ 101b2e64     FFTW3d:planner.obj
 0004:0000d110       ??_C@_0BL@A@fftw_dft_indirect_register?$AA@ 101b3110     FFTW3d:conf.obj
 0004:0000d12c       ??_C@_0BI@A@fftw_dft_rank0_register?$AA@ 101b312c     FFTW3d:conf.obj
 0004:0000d144       ??_C@_0BM@A@fftw_dft_rank_geq2_register?$AA@ 101b3144     FFTW3d:conf.obj
 0004:0000d160       ??_C@_0BN@A@fftw_dft_vrank_geq1_register?$AA@ 101b3160     FFTW3d:conf.obj
 0004:0000d180       ??_C@_0CD@FNHDH@fftw_dft_vrank2_transpose_regist@ 101b3180     FFTW3d:conf.obj
 0004:0000d1a4       ??_C@_0CD@FNHDH@fftw_dft_vrank3_transpose_regist@ 101b31a4     FFTW3d:conf.obj
 0004:0000d1c8       ??_C@_0BL@A@fftw_dft_buffered_register?$AA@ 101b31c8     FFTW3d:conf.obj
 0004:0000d1e4       ??_C@_0BK@A@fftw_dft_generic_register?$AA@ 101b31e4     FFTW3d:conf.obj
 0004:0000d200       ??_C@_0BI@A@fftw_dft_rader_register?$AA@ 101b3200     FFTW3d:conf.obj
 0004:0000d218       ??_C@_0BG@A@fftw_dft_nop_register?$AA@ 101b3218     FFTW3d:conf.obj
 0004:0000d230       ??_C@_0BM@A@fftw_rdft_indirect_register?$AA@ 101b3230     FFTW3d:conf.obj
 0004:0000d24c       ??_C@_0BJ@A@fftw_rdft_rank0_register?$AA@ 101b324c     FFTW3d:conf.obj
 0004:0000d268       ??_C@_0BO@A@fftw_rdft_vrank_geq1_register?$AA@ 101b3268     FFTW3d:conf.obj
 0004:0000d288       ??_C@_0BH@A@fftw_rdft_nop_register?$AA@ 101b3288     FFTW3d:conf.obj
 0004:0000d2a0       ??_C@_0BM@A@fftw_rdft_buffered_register?$AA@ 101b32a0     FFTW3d:conf.obj
 0004:0000d2bc       ??_C@_0BP@A@fftw_rdft_rader_hc2hc_register?$AA@ 101b32bc     FFTW3d:conf.obj
 0004:0000d2dc       ??_C@_0BL@A@fftw_rdft_generic_register?$AA@ 101b32dc     FFTW3d:conf.obj
 0004:0000d2f8       ??_C@_0BN@A@fftw_rdft_rank_geq2_register?$AA@ 101b32f8     FFTW3d:conf.obj
 0004:0000d318       ??_C@_0BH@A@fftw_dft_r2hc_register?$AA@ 101b3318     FFTW3d:conf.obj
 0004:0000d330       ??_C@_0BH@A@fftw_rdft_dht_register?$AA@ 101b3330     FFTW3d:conf.obj
 0004:0000d348       ??_C@_0BH@A@fftw_dht_r2hc_register?$AA@ 101b3348     FFTW3d:conf.obj
 0004:0000d360       ??_C@_0BI@A@fftw_dht_rader_register?$AA@ 101b3360     FFTW3d:conf.obj
 0004:0000d378       ??_C@_0BP@A@fftw_rdft2_vrank_geq1_register?$AA@ 101b3378     FFTW3d:conf.obj
 0004:0000d398       ??_C@_0BI@A@fftw_rdft2_nop_register?$AA@ 101b3398     FFTW3d:conf.obj
 0004:0000d3b0       ??_C@_0BK@A@fftw_rdft2_rank0_register?$AA@ 101b33b0     FFTW3d:conf.obj
 0004:0000d3cc       ??_C@_0BN@A@fftw_rdft2_buffered_register?$AA@ 101b33cc     FFTW3d:conf.obj
 0004:0000d3ec       ??_C@_0BO@A@fftw_rdft2_rank_geq2_register?$AA@ 101b33ec     FFTW3d:conf.obj
 0004:0000d40c       ??_C@_0BL@A@fftw_rdft2_radix2_register?$AA@ 101b340c     FFTW3d:conf.obj
 0004:0000d428       ??_C@_0CA@A@fftw_redft00e_r2hc_pad_register?$AA@ 101b3428     FFTW3d:conf.obj
 0004:0000d448       ??_C@_0CA@A@fftw_rodft00e_r2hc_pad_register?$AA@ 101b3448     FFTW3d:conf.obj
 0004:0000d468       ??_C@_0BO@A@fftw_reodft010e_r2hc_register?$AA@ 101b3468     FFTW3d:conf.obj
 0004:0000d488       ??_C@_0CE@BJHJJPL@fftw_reodft11e_radix2_r2hc_regis@ 101b3488     FFTW3d:conf.obj
 0004:0000d4ac       ??_C@_0CB@A@fftw_reodft11e_r2hc_odd_register@ 101b34ac     FFTW3d:conf.obj
 0004:0000d620       ??_C@_0BE@A@fftw_codelet_n1fv_2?$AA@ 101b3620     FFTW3d:codlist.obj
 0004:0000d634       ??_C@_0BE@A@fftw_codelet_n1fv_3?$AA@ 101b3634     FFTW3d:codlist.obj
 0004:0000d648       ??_C@_0BE@A@fftw_codelet_n1fv_4?$AA@ 101b3648     FFTW3d:codlist.obj
 0004:0000d65c       ??_C@_0BE@A@fftw_codelet_n1fv_5?$AA@ 101b365c     FFTW3d:codlist.obj
 0004:0000d670       ??_C@_0BE@A@fftw_codelet_n1fv_6?$AA@ 101b3670     FFTW3d:codlist.obj
 0004:0000d684       ??_C@_0BE@A@fftw_codelet_n1fv_7?$AA@ 101b3684     FFTW3d:codlist.obj
 0004:0000d698       ??_C@_0BE@A@fftw_codelet_n1fv_8?$AA@ 101b3698     FFTW3d:codlist.obj
 0004:0000d6ac       ??_C@_0BE@A@fftw_codelet_n1fv_9?$AA@ 101b36ac     FFTW3d:codlist.obj
 0004:0000d6c0       ??_C@_0BF@A@fftw_codelet_n1fv_10?$AA@ 101b36c0     FFTW3d:codlist.obj
 0004:0000d6d8       ??_C@_0BF@A@fftw_codelet_n1fv_11?$AA@ 101b36d8     FFTW3d:codlist.obj
 0004:0000d6f0       ??_C@_0BF@A@fftw_codelet_n1fv_12?$AA@ 101b36f0     FFTW3d:codlist.obj
 0004:0000d708       ??_C@_0BF@A@fftw_codelet_n1fv_13?$AA@ 101b3708     FFTW3d:codlist.obj
 0004:0000d720       ??_C@_0BF@A@fftw_codelet_n1fv_14?$AA@ 101b3720     FFTW3d:codlist.obj
 0004:0000d738       ??_C@_0BF@A@fftw_codelet_n1fv_15?$AA@ 101b3738     FFTW3d:codlist.obj
 0004:0000d750       ??_C@_0BF@A@fftw_codelet_n1fv_16?$AA@ 101b3750     FFTW3d:codlist.obj
 0004:0000d768       ??_C@_0BE@A@fftw_codelet_n1bv_2?$AA@ 101b3768     FFTW3d:codlist.obj
 0004:0000d77c       ??_C@_0BE@A@fftw_codelet_n1bv_3?$AA@ 101b377c     FFTW3d:codlist.obj
 0004:0000d790       ??_C@_0BE@A@fftw_codelet_n1bv_4?$AA@ 101b3790     FFTW3d:codlist.obj
 0004:0000d7a4       ??_C@_0BE@A@fftw_codelet_n1bv_5?$AA@ 101b37a4     FFTW3d:codlist.obj
 0004:0000d7b8       ??_C@_0BE@A@fftw_codelet_n1bv_6?$AA@ 101b37b8     FFTW3d:codlist.obj
 0004:0000d7cc       ??_C@_0BE@A@fftw_codelet_n1bv_7?$AA@ 101b37cc     FFTW3d:codlist.obj
 0004:0000d7e0       ??_C@_0BE@A@fftw_codelet_n1bv_8?$AA@ 101b37e0     FFTW3d:codlist.obj
 0004:0000d7f4       ??_C@_0BE@A@fftw_codelet_n1bv_9?$AA@ 101b37f4     FFTW3d:codlist.obj
 0004:0000d808       ??_C@_0BF@A@fftw_codelet_n1bv_10?$AA@ 101b3808     FFTW3d:codlist.obj
 0004:0000d820       ??_C@_0BF@A@fftw_codelet_n1bv_11?$AA@ 101b3820     FFTW3d:codlist.obj
 0004:0000d838       ??_C@_0BF@A@fftw_codelet_n1bv_12?$AA@ 101b3838     FFTW3d:codlist.obj
 0004:0000d850       ??_C@_0BF@A@fftw_codelet_n1bv_13?$AA@ 101b3850     FFTW3d:codlist.obj
 0004:0000d868       ??_C@_0BF@A@fftw_codelet_n1bv_14?$AA@ 101b3868     FFTW3d:codlist.obj
 0004:0000d880       ??_C@_0BF@A@fftw_codelet_n1bv_15?$AA@ 101b3880     FFTW3d:codlist.obj
 0004:0000d898       ??_C@_0BF@A@fftw_codelet_n1bv_16?$AA@ 101b3898     FFTW3d:codlist.obj
 0004:0000d8b0       ??_C@_0BE@A@fftw_codelet_n2fv_2?$AA@ 101b38b0     FFTW3d:codlist.obj
 0004:0000d8c4       ??_C@_0BE@A@fftw_codelet_n2fv_3?$AA@ 101b38c4     FFTW3d:codlist.obj
 0004:0000d8d8       ??_C@_0BE@A@fftw_codelet_n2fv_4?$AA@ 101b38d8     FFTW3d:codlist.obj
 0004:0000d8ec       ??_C@_0BE@A@fftw_codelet_n2fv_5?$AA@ 101b38ec     FFTW3d:codlist.obj
 0004:0000d900       ??_C@_0BE@A@fftw_codelet_n2fv_6?$AA@ 101b3900     FFTW3d:codlist.obj
 0004:0000d914       ??_C@_0BE@A@fftw_codelet_n2fv_7?$AA@ 101b3914     FFTW3d:codlist.obj
 0004:0000d928       ??_C@_0BE@A@fftw_codelet_n2fv_8?$AA@ 101b3928     FFTW3d:codlist.obj
 0004:0000d93c       ??_C@_0BE@A@fftw_codelet_n2fv_9?$AA@ 101b393c     FFTW3d:codlist.obj
 0004:0000d950       ??_C@_0BF@A@fftw_codelet_n2fv_10?$AA@ 101b3950     FFTW3d:codlist.obj
 0004:0000d968       ??_C@_0BF@A@fftw_codelet_n2fv_11?$AA@ 101b3968     FFTW3d:codlist.obj
 0004:0000d980       ??_C@_0BF@A@fftw_codelet_n2fv_12?$AA@ 101b3980     FFTW3d:codlist.obj
 0004:0000d998       ??_C@_0BF@A@fftw_codelet_n2fv_13?$AA@ 101b3998     FFTW3d:codlist.obj
 0004:0000d9b0       ??_C@_0BF@A@fftw_codelet_n2fv_14?$AA@ 101b39b0     FFTW3d:codlist.obj
 0004:0000d9c8       ??_C@_0BF@A@fftw_codelet_n2fv_15?$AA@ 101b39c8     FFTW3d:codlist.obj
 0004:0000d9e0       ??_C@_0BF@A@fftw_codelet_n2fv_16?$AA@ 101b39e0     FFTW3d:codlist.obj
 0004:0000d9f8       ??_C@_0BE@A@fftw_codelet_n2bv_2?$AA@ 101b39f8     FFTW3d:codlist.obj
 0004:0000da0c       ??_C@_0BE@A@fftw_codelet_n2bv_3?$AA@ 101b3a0c     FFTW3d:codlist.obj
 0004:0000da20       ??_C@_0BE@A@fftw_codelet_n2bv_4?$AA@ 101b3a20     FFTW3d:codlist.obj
 0004:0000da34       ??_C@_0BE@A@fftw_codelet_n2bv_5?$AA@ 101b3a34     FFTW3d:codlist.obj
 0004:0000da48       ??_C@_0BE@A@fftw_codelet_n2bv_6?$AA@ 101b3a48     FFTW3d:codlist.obj
 0004:0000da5c       ??_C@_0BE@A@fftw_codelet_n2bv_7?$AA@ 101b3a5c     FFTW3d:codlist.obj
 0004:0000da70       ??_C@_0BE@A@fftw_codelet_n2bv_8?$AA@ 101b3a70     FFTW3d:codlist.obj
 0004:0000da84       ??_C@_0BE@A@fftw_codelet_n2bv_9?$AA@ 101b3a84     FFTW3d:codlist.obj
 0004:0000da98       ??_C@_0BF@A@fftw_codelet_n2bv_10?$AA@ 101b3a98     FFTW3d:codlist.obj
 0004:0000dab0       ??_C@_0BF@A@fftw_codelet_n2bv_11?$AA@ 101b3ab0     FFTW3d:codlist.obj
 0004:0000dac8       ??_C@_0BF@A@fftw_codelet_n2bv_12?$AA@ 101b3ac8     FFTW3d:codlist.obj
 0004:0000dae0       ??_C@_0BF@A@fftw_codelet_n2bv_13?$AA@ 101b3ae0     FFTW3d:codlist.obj
 0004:0000daf8       ??_C@_0BF@A@fftw_codelet_n2bv_14?$AA@ 101b3af8     FFTW3d:codlist.obj
 0004:0000db10       ??_C@_0BF@A@fftw_codelet_n2bv_15?$AA@ 101b3b10     FFTW3d:codlist.obj
 0004:0000db28       ??_C@_0BF@A@fftw_codelet_n2bv_16?$AA@ 101b3b28     FFTW3d:codlist.obj
 0004:0000db40       ??_C@_0BF@A@fftw_codelet_m1fv_16?$AA@ 101b3b40     FFTW3d:codlist.obj
 0004:0000db58       ??_C@_0BF@A@fftw_codelet_m1fv_32?$AA@ 101b3b58     FFTW3d:codlist.obj
 0004:0000db70       ??_C@_0BF@A@fftw_codelet_m1fv_64?$AA@ 101b3b70     FFTW3d:codlist.obj
 0004:0000db88       ??_C@_0BF@A@fftw_codelet_m1bv_16?$AA@ 101b3b88     FFTW3d:codlist.obj
 0004:0000dba0       ??_C@_0BF@A@fftw_codelet_m1bv_32?$AA@ 101b3ba0     FFTW3d:codlist.obj
 0004:0000dbb8       ??_C@_0BF@A@fftw_codelet_m1bv_64?$AA@ 101b3bb8     FFTW3d:codlist.obj
 0004:0000dbd0       ??_C@_0BF@A@fftw_codelet_m2fv_16?$AA@ 101b3bd0     FFTW3d:codlist.obj
 0004:0000dbe8       ??_C@_0BF@A@fftw_codelet_m2fv_32?$AA@ 101b3be8     FFTW3d:codlist.obj
 0004:0000dc00       ??_C@_0BF@A@fftw_codelet_m2fv_64?$AA@ 101b3c00     FFTW3d:codlist.obj
 0004:0000dc18       ??_C@_0BF@A@fftw_codelet_m2bv_16?$AA@ 101b3c18     FFTW3d:codlist.obj
 0004:0000dc30       ??_C@_0BF@A@fftw_codelet_m2bv_32?$AA@ 101b3c30     FFTW3d:codlist.obj
 0004:0000dc48       ??_C@_0BF@A@fftw_codelet_m2bv_64?$AA@ 101b3c48     FFTW3d:codlist.obj
 0004:0000dc60       ??_C@_0BE@A@fftw_codelet_t1fv_2?$AA@ 101b3c60     FFTW3d:codlist.obj
 0004:0000dc74       ??_C@_0BE@A@fftw_codelet_t1fv_3?$AA@ 101b3c74     FFTW3d:codlist.obj
 0004:0000dc88       ??_C@_0BE@A@fftw_codelet_t1fv_4?$AA@ 101b3c88     FFTW3d:codlist.obj
 0004:0000dc9c       ??_C@_0BE@A@fftw_codelet_t1fv_5?$AA@ 101b3c9c     FFTW3d:codlist.obj
 0004:0000dcb0       ??_C@_0BE@A@fftw_codelet_t1fv_6?$AA@ 101b3cb0     FFTW3d:codlist.obj
 0004:0000dcc4       ??_C@_0BE@A@fftw_codelet_t1fv_7?$AA@ 101b3cc4     FFTW3d:codlist.obj
 0004:0000dcd8       ??_C@_0BE@A@fftw_codelet_t1fv_8?$AA@ 101b3cd8     FFTW3d:codlist.obj
 0004:0000dcec       ??_C@_0BE@A@fftw_codelet_t1fv_9?$AA@ 101b3cec     FFTW3d:codlist.obj
 0004:0000dd00       ??_C@_0BF@A@fftw_codelet_t1fv_10?$AA@ 101b3d00     FFTW3d:codlist.obj
 0004:0000dd18       ??_C@_0BF@A@fftw_codelet_t1fv_12?$AA@ 101b3d18     FFTW3d:codlist.obj
 0004:0000dd30       ??_C@_0BF@A@fftw_codelet_t1fv_15?$AA@ 101b3d30     FFTW3d:codlist.obj
 0004:0000dd48       ??_C@_0BF@A@fftw_codelet_t1fv_16?$AA@ 101b3d48     FFTW3d:codlist.obj
 0004:0000dd60       ??_C@_0BF@A@fftw_codelet_t1fv_32?$AA@ 101b3d60     FFTW3d:codlist.obj
 0004:0000dd78       ??_C@_0BF@A@fftw_codelet_t1fv_64?$AA@ 101b3d78     FFTW3d:codlist.obj
 0004:0000dd90       ??_C@_0BE@A@fftw_codelet_t1bv_2?$AA@ 101b3d90     FFTW3d:codlist.obj
 0004:0000dda4       ??_C@_0BE@A@fftw_codelet_t1bv_3?$AA@ 101b3da4     FFTW3d:codlist.obj
 0004:0000ddb8       ??_C@_0BE@A@fftw_codelet_t1bv_4?$AA@ 101b3db8     FFTW3d:codlist.obj
 0004:0000ddcc       ??_C@_0BE@A@fftw_codelet_t1bv_5?$AA@ 101b3dcc     FFTW3d:codlist.obj
 0004:0000dde0       ??_C@_0BE@A@fftw_codelet_t1bv_6?$AA@ 101b3de0     FFTW3d:codlist.obj
 0004:0000ddf4       ??_C@_0BE@A@fftw_codelet_t1bv_7?$AA@ 101b3df4     FFTW3d:codlist.obj
 0004:0000de08       ??_C@_0BE@A@fftw_codelet_t1bv_8?$AA@ 101b3e08     FFTW3d:codlist.obj
 0004:0000de1c       ??_C@_0BE@A@fftw_codelet_t1bv_9?$AA@ 101b3e1c     FFTW3d:codlist.obj
 0004:0000de30       ??_C@_0BF@A@fftw_codelet_t1bv_10?$AA@ 101b3e30     FFTW3d:codlist.obj
 0004:0000de48       ??_C@_0BF@A@fftw_codelet_t1bv_12?$AA@ 101b3e48     FFTW3d:codlist.obj
 0004:0000de60       ??_C@_0BF@A@fftw_codelet_t1bv_15?$AA@ 101b3e60     FFTW3d:codlist.obj
 0004:0000de78       ??_C@_0BF@A@fftw_codelet_t1bv_16?$AA@ 101b3e78     FFTW3d:codlist.obj
 0004:0000de90       ??_C@_0BF@A@fftw_codelet_t1bv_32?$AA@ 101b3e90     FFTW3d:codlist.obj
 0004:0000dea8       ??_C@_0BF@A@fftw_codelet_t1bv_64?$AA@ 101b3ea8     FFTW3d:codlist.obj
 0004:0000dec0       ??_C@_0BE@A@fftw_codelet_q1fv_2?$AA@ 101b3ec0     FFTW3d:codlist.obj
 0004:0000ded4       ??_C@_0BE@A@fftw_codelet_q1fv_4?$AA@ 101b3ed4     FFTW3d:codlist.obj
 0004:0000dee8       ??_C@_0BE@A@fftw_codelet_q1fv_8?$AA@ 101b3ee8     FFTW3d:codlist.obj
 0004:0000defc       ??_C@_0BE@A@fftw_codelet_q1bv_2?$AA@ 101b3efc     FFTW3d:codlist.obj
 0004:0000df10       ??_C@_0BE@A@fftw_codelet_q1bv_4?$AA@ 101b3f10     FFTW3d:codlist.obj
 0004:0000df24       ??_C@_0BE@A@fftw_codelet_q1bv_8?$AA@ 101b3f24     FFTW3d:codlist.obj
 0004:0000df38       ??_C@_0BC@A@fftw_codelet_q1_2?$AA@ 101b3f38     FFTW3d:codlist.obj
 0004:0000df4c       ??_C@_0BC@A@fftw_codelet_q1_4?$AA@ 101b3f4c     FFTW3d:codlist.obj
 0004:0000df60       ??_C@_0BC@A@fftw_codelet_q1_8?$AA@ 101b3f60     FFTW3d:codlist.obj
 0004:0000df74       ??_C@_0BC@A@fftw_codelet_q1_3?$AA@ 101b3f74     FFTW3d:codlist.obj
 0004:0000df88       ??_C@_0BC@A@fftw_codelet_q1_5?$AA@ 101b3f88     FFTW3d:codlist.obj
 0004:0000df9c       ??_C@_0BC@A@fftw_codelet_q1_6?$AA@ 101b3f9c     FFTW3d:codlist.obj
 0004:0000dfb0       ??_C@_0BC@A@fftw_codelet_n1_2?$AA@ 101b3fb0     FFTW3d:codlist.obj
 0004:0000dfc4       ??_C@_0BC@A@fftw_codelet_n1_3?$AA@ 101b3fc4     FFTW3d:codlist.obj
 0004:0000dfd8       ??_C@_0BC@A@fftw_codelet_n1_4?$AA@ 101b3fd8     FFTW3d:codlist.obj
 0004:0000dfec       ??_C@_0BC@A@fftw_codelet_n1_5?$AA@ 101b3fec     FFTW3d:codlist.obj
 0004:0000e000       ??_C@_0BC@A@fftw_codelet_n1_6?$AA@ 101b4000     FFTW3d:codlist.obj
 0004:0000e014       ??_C@_0BC@A@fftw_codelet_n1_7?$AA@ 101b4014     FFTW3d:codlist.obj
 0004:0000e028       ??_C@_0BC@A@fftw_codelet_n1_8?$AA@ 101b4028     FFTW3d:codlist.obj
 0004:0000e03c       ??_C@_0BC@A@fftw_codelet_n1_9?$AA@ 101b403c     FFTW3d:codlist.obj
 0004:0000e050       ??_C@_0BD@A@fftw_codelet_n1_10?$AA@ 101b4050     FFTW3d:codlist.obj
 0004:0000e064       ??_C@_0BD@A@fftw_codelet_n1_11?$AA@ 101b4064     FFTW3d:codlist.obj
 0004:0000e078       ??_C@_0BD@A@fftw_codelet_n1_12?$AA@ 101b4078     FFTW3d:codlist.obj
 0004:0000e08c       ??_C@_0BD@A@fftw_codelet_n1_13?$AA@ 101b408c     FFTW3d:codlist.obj
 0004:0000e0a0       ??_C@_0BD@A@fftw_codelet_n1_14?$AA@ 101b40a0     FFTW3d:codlist.obj
 0004:0000e0b4       ??_C@_0BD@A@fftw_codelet_n1_15?$AA@ 101b40b4     FFTW3d:codlist.obj
 0004:0000e0c8       ??_C@_0BD@A@fftw_codelet_n1_16?$AA@ 101b40c8     FFTW3d:codlist.obj
 0004:0000e0dc       ??_C@_0BD@A@fftw_codelet_m1_16?$AA@ 101b40dc     FFTW3d:codlist.obj
 0004:0000e0f0       ??_C@_0BD@A@fftw_codelet_m1_32?$AA@ 101b40f0     FFTW3d:codlist.obj
 0004:0000e104       ??_C@_0BD@A@fftw_codelet_m1_64?$AA@ 101b4104     FFTW3d:codlist.obj
 0004:0000e118       ??_C@_0BC@A@fftw_codelet_t1_2?$AA@ 101b4118     FFTW3d:codlist.obj
 0004:0000e12c       ??_C@_0BC@A@fftw_codelet_t1_3?$AA@ 101b412c     FFTW3d:codlist.obj
 0004:0000e140       ??_C@_0BC@A@fftw_codelet_t1_4?$AA@ 101b4140     FFTW3d:codlist.obj
 0004:0000e154       ??_C@_0BC@A@fftw_codelet_t1_5?$AA@ 101b4154     FFTW3d:codlist.obj
 0004:0000e168       ??_C@_0BC@A@fftw_codelet_t1_6?$AA@ 101b4168     FFTW3d:codlist.obj
 0004:0000e17c       ??_C@_0BC@A@fftw_codelet_t1_7?$AA@ 101b417c     FFTW3d:codlist.obj
 0004:0000e190       ??_C@_0BC@A@fftw_codelet_t1_8?$AA@ 101b4190     FFTW3d:codlist.obj
 0004:0000e1a4       ??_C@_0BC@A@fftw_codelet_t1_9?$AA@ 101b41a4     FFTW3d:codlist.obj
 0004:0000e1b8       ??_C@_0BD@A@fftw_codelet_t1_10?$AA@ 101b41b8     FFTW3d:codlist.obj
 0004:0000e1cc       ??_C@_0BD@A@fftw_codelet_t1_12?$AA@ 101b41cc     FFTW3d:codlist.obj
 0004:0000e1e0       ??_C@_0BD@A@fftw_codelet_t1_15?$AA@ 101b41e0     FFTW3d:codlist.obj
 0004:0000e1f4       ??_C@_0BD@A@fftw_codelet_t1_16?$AA@ 101b41f4     FFTW3d:codlist.obj
 0004:0000e208       ??_C@_0BD@A@fftw_codelet_t1_32?$AA@ 101b4208     FFTW3d:codlist.obj
 0004:0000e21c       ??_C@_0BD@A@fftw_codelet_t1_64?$AA@ 101b421c     FFTW3d:codlist.obj
 0004:0000e230       ??_C@_0BC@A@fftw_codelet_t2_4?$AA@ 101b4230     FFTW3d:codlist.obj
 0004:0000e244       ??_C@_0BC@A@fftw_codelet_t2_8?$AA@ 101b4244     FFTW3d:codlist.obj
 0004:0000e258       ??_C@_0BD@A@fftw_codelet_t2_16?$AA@ 101b4258     FFTW3d:codlist.obj
 0004:0000e26c       ??_C@_0BD@A@fftw_codelet_t2_32?$AA@ 101b426c     FFTW3d:codlist.obj
 0004:0000e280       ??_C@_0BD@A@fftw_codelet_t2_64?$AA@ 101b4280     FFTW3d:codlist.obj
 0004:0000e608       ??_C@_0BD@A@fftw_codelet_e01_8?$AA@ 101b4608     FFTW3d:codlist.obj
 0004:0000e61c       ??_C@_0BD@A@fftw_codelet_e10_8?$AA@ 101b461c     FFTW3d:codlist.obj
 0004:0000e630       ??_C@_0BE@A@fftw_codelet_hc2r_3?$AA@ 101b4630     FFTW3d:codlist.obj
 0004:0000e644       ??_C@_0BE@A@fftw_codelet_hc2r_4?$AA@ 101b4644     FFTW3d:codlist.obj
 0004:0000e658       ??_C@_0BE@A@fftw_codelet_hc2r_5?$AA@ 101b4658     FFTW3d:codlist.obj
 0004:0000e66c       ??_C@_0BE@A@fftw_codelet_hc2r_6?$AA@ 101b466c     FFTW3d:codlist.obj
 0004:0000e680       ??_C@_0BE@A@fftw_codelet_hc2r_7?$AA@ 101b4680     FFTW3d:codlist.obj
 0004:0000e694       ??_C@_0BE@A@fftw_codelet_hc2r_8?$AA@ 101b4694     FFTW3d:codlist.obj
 0004:0000e6a8       ??_C@_0BE@A@fftw_codelet_hc2r_9?$AA@ 101b46a8     FFTW3d:codlist.obj
 0004:0000e6bc       ??_C@_0BF@A@fftw_codelet_hc2r_10?$AA@ 101b46bc     FFTW3d:codlist.obj
 0004:0000e6d4       ??_C@_0BF@A@fftw_codelet_hc2r_11?$AA@ 101b46d4     FFTW3d:codlist.obj
 0004:0000e6ec       ??_C@_0BF@A@fftw_codelet_hc2r_12?$AA@ 101b46ec     FFTW3d:codlist.obj
 0004:0000e704       ??_C@_0BF@A@fftw_codelet_hc2r_13?$AA@ 101b4704     FFTW3d:codlist.obj
 0004:0000e71c       ??_C@_0BF@A@fftw_codelet_hc2r_14?$AA@ 101b471c     FFTW3d:codlist.obj
 0004:0000e734       ??_C@_0BF@A@fftw_codelet_hc2r_15?$AA@ 101b4734     FFTW3d:codlist.obj
 0004:0000e74c       ??_C@_0BF@A@fftw_codelet_hc2r_16?$AA@ 101b474c     FFTW3d:codlist.obj
 0004:0000e764       ??_C@_0BF@A@fftw_codelet_hc2r_32?$AA@ 101b4764     FFTW3d:codlist.obj
 0004:0000e77c       ??_C@_0BG@A@fftw_codelet_mhc2r_32?$AA@ 101b477c     FFTW3d:codlist.obj
 0004:0000e794       ??_C@_0BG@A@fftw_codelet_mhc2r_64?$AA@ 101b4794     FFTW3d:codlist.obj
 0004:0000e7ac       ??_C@_0BH@A@fftw_codelet_mhc2r_128?$AA@ 101b47ac     FFTW3d:codlist.obj
 0004:0000e7c4       ??_C@_0BC@A@fftw_codelet_hb_2?$AA@ 101b47c4     FFTW3d:codlist.obj
 0004:0000e7d8       ??_C@_0BC@A@fftw_codelet_hb_3?$AA@ 101b47d8     FFTW3d:codlist.obj
 0004:0000e7ec       ??_C@_0BC@A@fftw_codelet_hb_4?$AA@ 101b47ec     FFTW3d:codlist.obj
 0004:0000e800       ??_C@_0BC@A@fftw_codelet_hb_5?$AA@ 101b4800     FFTW3d:codlist.obj
 0004:0000e814       ??_C@_0BC@A@fftw_codelet_hb_6?$AA@ 101b4814     FFTW3d:codlist.obj
 0004:0000e828       ??_C@_0BC@A@fftw_codelet_hb_7?$AA@ 101b4828     FFTW3d:codlist.obj
 0004:0000e83c       ??_C@_0BC@A@fftw_codelet_hb_8?$AA@ 101b483c     FFTW3d:codlist.obj
 0004:0000e850       ??_C@_0BC@A@fftw_codelet_hb_9?$AA@ 101b4850     FFTW3d:codlist.obj
 0004:0000e864       ??_C@_0BD@A@fftw_codelet_hb_10?$AA@ 101b4864     FFTW3d:codlist.obj
 0004:0000e878       ??_C@_0BD@A@fftw_codelet_hb_12?$AA@ 101b4878     FFTW3d:codlist.obj
 0004:0000e88c       ??_C@_0BD@A@fftw_codelet_hb_15?$AA@ 101b488c     FFTW3d:codlist.obj
 0004:0000e8a0       ??_C@_0BD@A@fftw_codelet_hb_16?$AA@ 101b48a0     FFTW3d:codlist.obj
 0004:0000e8b4       ??_C@_0BD@A@fftw_codelet_hb_32?$AA@ 101b48b4     FFTW3d:codlist.obj
 0004:0000e8c8       ??_C@_0BD@A@fftw_codelet_hb_64?$AA@ 101b48c8     FFTW3d:codlist.obj
 0004:0000e8dc       ??_C@_0BH@A@fftw_codelet_hc2rIII_2?$AA@ 101b48dc     FFTW3d:codlist.obj
 0004:0000e8f4       ??_C@_0BH@A@fftw_codelet_hc2rIII_3?$AA@ 101b48f4     FFTW3d:codlist.obj
 0004:0000e90c       ??_C@_0BH@A@fftw_codelet_hc2rIII_4?$AA@ 101b490c     FFTW3d:codlist.obj
 0004:0000e924       ??_C@_0BH@A@fftw_codelet_hc2rIII_5?$AA@ 101b4924     FFTW3d:codlist.obj
 0004:0000e93c       ??_C@_0BH@A@fftw_codelet_hc2rIII_6?$AA@ 101b493c     FFTW3d:codlist.obj
 0004:0000e954       ??_C@_0BH@A@fftw_codelet_hc2rIII_7?$AA@ 101b4954     FFTW3d:codlist.obj
 0004:0000e96c       ??_C@_0BH@A@fftw_codelet_hc2rIII_8?$AA@ 101b496c     FFTW3d:codlist.obj
 0004:0000e984       ??_C@_0BH@A@fftw_codelet_hc2rIII_9?$AA@ 101b4984     FFTW3d:codlist.obj
 0004:0000e99c       ??_C@_0BI@A@fftw_codelet_hc2rIII_10?$AA@ 101b499c     FFTW3d:codlist.obj
 0004:0000e9b4       ??_C@_0BI@A@fftw_codelet_hc2rIII_12?$AA@ 101b49b4     FFTW3d:codlist.obj
 0004:0000e9cc       ??_C@_0BI@A@fftw_codelet_hc2rIII_15?$AA@ 101b49cc     FFTW3d:codlist.obj
 0004:0000e9e4       ??_C@_0BI@A@fftw_codelet_hc2rIII_16?$AA@ 101b49e4     FFTW3d:codlist.obj
 0004:0000e9fc       ??_C@_0BI@A@fftw_codelet_hc2rIII_32?$AA@ 101b49fc     FFTW3d:codlist.obj
 0004:0000ea14       ??_C@_0BJ@A@fftw_codelet_mhc2rIII_32?$AA@ 101b4a14     FFTW3d:codlist.obj
 0004:0000ea30       ??_C@_0BJ@A@fftw_codelet_mhc2rIII_64?$AA@ 101b4a30     FFTW3d:codlist.obj
 0004:0000ea4c       ??_C@_0BE@A@fftw_codelet_r2hc_2?$AA@ 101b4a4c     FFTW3d:codlist.obj
 0004:0000ea60       ??_C@_0BE@A@fftw_codelet_r2hc_3?$AA@ 101b4a60     FFTW3d:codlist.obj
 0004:0000ea74       ??_C@_0BE@A@fftw_codelet_r2hc_4?$AA@ 101b4a74     FFTW3d:codlist.obj
 0004:0000ea88       ??_C@_0BE@A@fftw_codelet_r2hc_5?$AA@ 101b4a88     FFTW3d:codlist.obj
 0004:0000ea9c       ??_C@_0BE@A@fftw_codelet_r2hc_6?$AA@ 101b4a9c     FFTW3d:codlist.obj
 0004:0000eab0       ??_C@_0BE@A@fftw_codelet_r2hc_7?$AA@ 101b4ab0     FFTW3d:codlist.obj
 0004:0000eac4       ??_C@_0BE@A@fftw_codelet_r2hc_8?$AA@ 101b4ac4     FFTW3d:codlist.obj
 0004:0000ead8       ??_C@_0BE@A@fftw_codelet_r2hc_9?$AA@ 101b4ad8     FFTW3d:codlist.obj
 0004:0000eaec       ??_C@_0BF@A@fftw_codelet_r2hc_10?$AA@ 101b4aec     FFTW3d:codlist.obj
 0004:0000eb04       ??_C@_0BF@A@fftw_codelet_r2hc_11?$AA@ 101b4b04     FFTW3d:codlist.obj
 0004:0000eb1c       ??_C@_0BF@A@fftw_codelet_r2hc_12?$AA@ 101b4b1c     FFTW3d:codlist.obj
 0004:0000eb34       ??_C@_0BF@A@fftw_codelet_r2hc_13?$AA@ 101b4b34     FFTW3d:codlist.obj
 0004:0000eb4c       ??_C@_0BF@A@fftw_codelet_r2hc_14?$AA@ 101b4b4c     FFTW3d:codlist.obj
 0004:0000eb64       ??_C@_0BF@A@fftw_codelet_r2hc_15?$AA@ 101b4b64     FFTW3d:codlist.obj
 0004:0000eb7c       ??_C@_0BF@A@fftw_codelet_r2hc_16?$AA@ 101b4b7c     FFTW3d:codlist.obj
 0004:0000eb94       ??_C@_0BF@A@fftw_codelet_r2hc_32?$AA@ 101b4b94     FFTW3d:codlist.obj
 0004:0000ebac       ??_C@_0BG@A@fftw_codelet_mr2hc_32?$AA@ 101b4bac     FFTW3d:codlist.obj
 0004:0000ebc4       ??_C@_0BG@A@fftw_codelet_mr2hc_64?$AA@ 101b4bc4     FFTW3d:codlist.obj
 0004:0000ebdc       ??_C@_0BH@A@fftw_codelet_mr2hc_128?$AA@ 101b4bdc     FFTW3d:codlist.obj
 0004:0000ebf4       ??_C@_0BC@A@fftw_codelet_hf_2?$AA@ 101b4bf4     FFTW3d:codlist.obj
 0004:0000ec08       ??_C@_0BC@A@fftw_codelet_hf_3?$AA@ 101b4c08     FFTW3d:codlist.obj
 0004:0000ec1c       ??_C@_0BC@A@fftw_codelet_hf_4?$AA@ 101b4c1c     FFTW3d:codlist.obj
 0004:0000ec30       ??_C@_0BC@A@fftw_codelet_hf_5?$AA@ 101b4c30     FFTW3d:codlist.obj
 0004:0000ec44       ??_C@_0BC@A@fftw_codelet_hf_6?$AA@ 101b4c44     FFTW3d:codlist.obj
 0004:0000ec58       ??_C@_0BC@A@fftw_codelet_hf_7?$AA@ 101b4c58     FFTW3d:codlist.obj
 0004:0000ec6c       ??_C@_0BC@A@fftw_codelet_hf_8?$AA@ 101b4c6c     FFTW3d:codlist.obj
 0004:0000ec80       ??_C@_0BC@A@fftw_codelet_hf_9?$AA@ 101b4c80     FFTW3d:codlist.obj
 0004:0000ec94       ??_C@_0BD@A@fftw_codelet_hf_10?$AA@ 101b4c94     FFTW3d:codlist.obj
 0004:0000eca8       ??_C@_0BD@A@fftw_codelet_hf_12?$AA@ 101b4ca8     FFTW3d:codlist.obj
 0004:0000ecbc       ??_C@_0BD@A@fftw_codelet_hf_15?$AA@ 101b4cbc     FFTW3d:codlist.obj
 0004:0000ecd0       ??_C@_0BD@A@fftw_codelet_hf_16?$AA@ 101b4cd0     FFTW3d:codlist.obj
 0004:0000ece4       ??_C@_0BD@A@fftw_codelet_hf_32?$AA@ 101b4ce4     FFTW3d:codlist.obj
 0004:0000ecf8       ??_C@_0BD@A@fftw_codelet_hf_64?$AA@ 101b4cf8     FFTW3d:codlist.obj
 0004:0000ed0c       ??_C@_0BD@A@fftw_codelet_hf2_4?$AA@ 101b4d0c     FFTW3d:codlist.obj
 0004:0000ed20       ??_C@_0BD@A@fftw_codelet_hf2_8?$AA@ 101b4d20     FFTW3d:codlist.obj
 0004:0000ed34       ??_C@_0BE@A@fftw_codelet_hf2_16?$AA@ 101b4d34     FFTW3d:codlist.obj
 0004:0000ed48       ??_C@_0BE@A@fftw_codelet_hf2_32?$AA@ 101b4d48     FFTW3d:codlist.obj
 0004:0000ed5c       ??_C@_0BE@A@fftw_codelet_hf2_64?$AA@ 101b4d5c     FFTW3d:codlist.obj
 0004:0000ed70       ??_C@_0BG@A@fftw_codelet_r2hcII_2?$AA@ 101b4d70     FFTW3d:codlist.obj
 0004:0000ed88       ??_C@_0BG@A@fftw_codelet_r2hcII_3?$AA@ 101b4d88     FFTW3d:codlist.obj
 0004:0000eda0       ??_C@_0BG@A@fftw_codelet_r2hcII_4?$AA@ 101b4da0     FFTW3d:codlist.obj
 0004:0000edb8       ??_C@_0BG@A@fftw_codelet_r2hcII_5?$AA@ 101b4db8     FFTW3d:codlist.obj
 0004:0000edd0       ??_C@_0BG@A@fftw_codelet_r2hcII_6?$AA@ 101b4dd0     FFTW3d:codlist.obj
 0004:0000ede8       ??_C@_0BG@A@fftw_codelet_r2hcII_7?$AA@ 101b4de8     FFTW3d:codlist.obj
 0004:0000ee00       ??_C@_0BG@A@fftw_codelet_r2hcII_8?$AA@ 101b4e00     FFTW3d:codlist.obj
 0004:0000ee18       ??_C@_0BG@A@fftw_codelet_r2hcII_9?$AA@ 101b4e18     FFTW3d:codlist.obj
 0004:0000ee30       ??_C@_0BH@A@fftw_codelet_r2hcII_10?$AA@ 101b4e30     FFTW3d:codlist.obj
 0004:0000ee48       ??_C@_0BH@A@fftw_codelet_r2hcII_12?$AA@ 101b4e48     FFTW3d:codlist.obj
 0004:0000ee60       ??_C@_0BH@A@fftw_codelet_r2hcII_15?$AA@ 101b4e60     FFTW3d:codlist.obj
 0004:0000ee78       ??_C@_0BH@A@fftw_codelet_r2hcII_16?$AA@ 101b4e78     FFTW3d:codlist.obj
 0004:0000ee90       ??_C@_0BH@A@fftw_codelet_r2hcII_32?$AA@ 101b4e90     FFTW3d:codlist.obj
 0004:0000eea8       ??_C@_0BI@A@fftw_codelet_mr2hcII_32?$AA@ 101b4ea8     FFTW3d:codlist.obj
 0004:0000eec0       ??_C@_0BI@A@fftw_codelet_mr2hcII_64?$AA@ 101b4ec0     FFTW3d:codlist.obj
 0004:000182a0       _fftw_dft_n1fsimd_genus    101be2a0     FFTW3d:n1f.obj
 0004:000182b0       _fftw_sse2_mp              101be2b0     FFTW3d:sse2-aux.obj
 0004:000182c0       _fftw_dft_n1bsimd_genus    101be2c0     FFTW3d:n1b.obj
 0004:000182c8       _fftw_dft_n2fsimd_genus    101be2c8     FFTW3d:n2f.obj
 0004:000182d0       _fftw_dft_n2bsimd_genus    101be2d0     FFTW3d:n2b.obj
 0004:000182d8       _fftw_dft_t1fsimd_genus    101be2d8     FFTW3d:t1f.obj
 0004:000182e0       _fftw_dft_t1bsimd_genus    101be2e0     FFTW3d:t1b.obj
 0004:000182e8       _fftw_dft_q1fsimd_genus    101be2e8     FFTW3d:q1f.obj
 0004:000182f0       _fftw_dft_q1bsimd_genus    101be2f0     FFTW3d:q1b.obj
 0004:000182f8       _fftw_dft_t_genus          101be2f8     FFTW3d:t.obj
 0004:00018300       _fftw_dft_n_genus          101be300     FFTW3d:n.obj
 0004:00018308       _fftw_rdft_r2r_genus       101be308     FFTW3d:r2r.obj
 0004:00018310       _fftw_rdft_hc2r_genus      101be310     FFTW3d:hc2r.obj
 0004:0001831c       _fftw_rdft_hc2rIII_genus   101be31c     FFTW3d:hc2r.obj
 0004:00018328       _fftw_rdft_hf_genus        101be328     FFTW3d:hfb.obj
 0004:00018334       _fftw_rdft_hb_genus        101be334     FFTW3d:hfb.obj
 0004:00018340       _fftw_rdft_r2hc_genus      101be340     FFTW3d:r2hc.obj
 0004:0001834c       _fftw_rdft_r2hcII_genus    101be34c     FFTW3d:r2hc.obj
 0004:00018358       ??_C@_0BF@A@ALIGNED?$CI?$CGX?$CIsse2_mp?$CJ?$CJ?$AA@ 101be358     FFTW3d:sse2.obj
 0004:00018370       ??_C@_0CH@GNIFPEJK@C?3?2src?2fftw3win32?2fftw?93?40?2simd?2@ 101be370     FFTW3d:sse2.obj
 0004:00018688       ??_C@_0BK@A@?$CIFFTW?93?401?5fftwl_wisdom?$CF?$CI?$AA@ 101be688     FFTW3l:planner.obj
 0004:000186a4       ??_C@_0BI@A@?$CIFFTW?93?401?5fftwl_wisdom?$AA@ 101be6a4     FFTW3l:planner.obj
 0004:00018950       ??_C@_0BM@A@fftwl_dft_indirect_register?$AA@ 101be950     FFTW3l:conf.obj
 0004:0001896c       ??_C@_0BJ@A@fftwl_dft_rank0_register?$AA@ 101be96c     FFTW3l:conf.obj
 0004:00018988       ??_C@_0BN@A@fftwl_dft_rank_geq2_register?$AA@ 101be988     FFTW3l:conf.obj
 0004:000189a8       ??_C@_0BO@A@fftwl_dft_vrank_geq1_register?$AA@ 101be9a8     FFTW3l:conf.obj
 0004:000189c8       ??_C@_0CE@BJHJJPL@fftwl_dft_vrank2_transpose_regis@ 101be9c8     FFTW3l:conf.obj
 0004:000189ec       ??_C@_0CE@BJHJJPL@fftwl_dft_vrank3_transpose_regis@ 101be9ec     FFTW3l:conf.obj
 0004:00018a10       ??_C@_0BM@A@fftwl_dft_buffered_register?$AA@ 101bea10     FFTW3l:conf.obj
 0004:00018a2c       ??_C@_0BL@A@fftwl_dft_generic_register?$AA@ 101bea2c     FFTW3l:conf.obj
 0004:00018a48       ??_C@_0BJ@A@fftwl_dft_rader_register?$AA@ 101bea48     FFTW3l:conf.obj
 0004:00018a64       ??_C@_0BH@A@fftwl_dft_nop_register?$AA@ 101bea64     FFTW3l:conf.obj
 0004:00018a7c       ??_C@_0BN@A@fftwl_rdft_indirect_register?$AA@ 101bea7c     FFTW3l:conf.obj
 0004:00018a9c       ??_C@_0BK@A@fftwl_rdft_rank0_register?$AA@ 101bea9c     FFTW3l:conf.obj
 0004:00018ab8       ??_C@_0BP@A@fftwl_rdft_vrank_geq1_register?$AA@ 101beab8     FFTW3l:conf.obj
 0004:00018ad8       ??_C@_0BI@A@fftwl_rdft_nop_register?$AA@ 101bead8     FFTW3l:conf.obj
 0004:00018af0       ??_C@_0BN@A@fftwl_rdft_buffered_register?$AA@ 101beaf0     FFTW3l:conf.obj
 0004:00018b10       ??_C@_0CA@A@fftwl_rdft_rader_hc2hc_register?$AA@ 101beb10     FFTW3l:conf.obj
 0004:00018b30       ??_C@_0BM@A@fftwl_rdft_generic_register?$AA@ 101beb30     FFTW3l:conf.obj
 0004:00018b4c       ??_C@_0BO@A@fftwl_rdft_rank_geq2_register?$AA@ 101beb4c     FFTW3l:conf.obj
 0004:00018b6c       ??_C@_0BI@A@fftwl_dft_r2hc_register?$AA@ 101beb6c     FFTW3l:conf.obj
 0004:00018b84       ??_C@_0BI@A@fftwl_rdft_dht_register?$AA@ 101beb84     FFTW3l:conf.obj
 0004:00018b9c       ??_C@_0BI@A@fftwl_dht_r2hc_register?$AA@ 101beb9c     FFTW3l:conf.obj
 0004:00018bb4       ??_C@_0BJ@A@fftwl_dht_rader_register?$AA@ 101bebb4     FFTW3l:conf.obj
 0004:00018bd0       ??_C@_0CA@A@fftwl_rdft2_vrank_geq1_register?$AA@ 101bebd0     FFTW3l:conf.obj
 0004:00018bf0       ??_C@_0BJ@A@fftwl_rdft2_nop_register?$AA@ 101bebf0     FFTW3l:conf.obj
 0004:00018c0c       ??_C@_0BL@A@fftwl_rdft2_rank0_register?$AA@ 101bec0c     FFTW3l:conf.obj
 0004:00018c28       ??_C@_0BO@A@fftwl_rdft2_buffered_register?$AA@ 101bec28     FFTW3l:conf.obj
 0004:00018c48       ??_C@_0BP@A@fftwl_rdft2_rank_geq2_register?$AA@ 101bec48     FFTW3l:conf.obj
 0004:00018c68       ??_C@_0BM@A@fftwl_rdft2_radix2_register?$AA@ 101bec68     FFTW3l:conf.obj
 0004:00018c84       ??_C@_0CB@A@fftwl_redft00e_r2hc_pad_register@ 101bec84     FFTW3l:conf.obj
 0004:00018ca8       ??_C@_0CB@A@fftwl_rodft00e_r2hc_pad_register@ 101beca8     FFTW3l:conf.obj
 0004:00018ccc       ??_C@_0BP@A@fftwl_reodft010e_r2hc_register?$AA@ 101beccc     FFTW3l:conf.obj
 0004:00018cec       ??_C@_0CF@GAHPLNGO@fftwl_reodft11e_radix2_r2hc_regi@ 101becec     FFTW3l:conf.obj
 0004:00018d14       ??_C@_0CC@BLCK@fftwl_reodft11e_r2hc_odd_registe@ 101bed14     FFTW3l:conf.obj
 0004:00018e88       ??_C@_0BD@A@fftwl_codelet_q1_2?$AA@ 101bee88     FFTW3l:codlist.obj
 0004:00018e9c       ??_C@_0BD@A@fftwl_codelet_q1_4?$AA@ 101bee9c     FFTW3l:codlist.obj
 0004:00018eb0       ??_C@_0BD@A@fftwl_codelet_q1_8?$AA@ 101beeb0     FFTW3l:codlist.obj
 0004:00018ec4       ??_C@_0BD@A@fftwl_codelet_q1_3?$AA@ 101beec4     FFTW3l:codlist.obj
 0004:00018ed8       ??_C@_0BD@A@fftwl_codelet_q1_5?$AA@ 101beed8     FFTW3l:codlist.obj
 0004:00018eec       ??_C@_0BD@A@fftwl_codelet_q1_6?$AA@ 101beeec     FFTW3l:codlist.obj
 0004:00018f00       ??_C@_0BD@A@fftwl_codelet_n1_2?$AA@ 101bef00     FFTW3l:codlist.obj
 0004:00018f14       ??_C@_0BD@A@fftwl_codelet_n1_3?$AA@ 101bef14     FFTW3l:codlist.obj
 0004:00018f28       ??_C@_0BD@A@fftwl_codelet_n1_4?$AA@ 101bef28     FFTW3l:codlist.obj
 0004:00018f3c       ??_C@_0BD@A@fftwl_codelet_n1_5?$AA@ 101bef3c     FFTW3l:codlist.obj
 0004:00018f50       ??_C@_0BD@A@fftwl_codelet_n1_6?$AA@ 101bef50     FFTW3l:codlist.obj
 0004:00018f64       ??_C@_0BD@A@fftwl_codelet_n1_7?$AA@ 101bef64     FFTW3l:codlist.obj
 0004:00018f78       ??_C@_0BD@A@fftwl_codelet_n1_8?$AA@ 101bef78     FFTW3l:codlist.obj
 0004:00018f8c       ??_C@_0BD@A@fftwl_codelet_n1_9?$AA@ 101bef8c     FFTW3l:codlist.obj
 0004:00018fa0       ??_C@_0BE@A@fftwl_codelet_n1_10?$AA@ 101befa0     FFTW3l:codlist.obj
 0004:00018fb4       ??_C@_0BE@A@fftwl_codelet_n1_11?$AA@ 101befb4     FFTW3l:codlist.obj
 0004:00018fc8       ??_C@_0BE@A@fftwl_codelet_n1_12?$AA@ 101befc8     FFTW3l:codlist.obj
 0004:00018fdc       ??_C@_0BE@A@fftwl_codelet_n1_13?$AA@ 101befdc     FFTW3l:codlist.obj
 0004:00018ff0       ??_C@_0BE@A@fftwl_codelet_n1_14?$AA@ 101beff0     FFTW3l:codlist.obj
 0004:00019004       ??_C@_0BE@A@fftwl_codelet_n1_15?$AA@ 101bf004     FFTW3l:codlist.obj
 0004:00019018       ??_C@_0BE@A@fftwl_codelet_n1_16?$AA@ 101bf018     FFTW3l:codlist.obj
 0004:0001902c       ??_C@_0BE@A@fftwl_codelet_m1_16?$AA@ 101bf02c     FFTW3l:codlist.obj
 0004:00019040       ??_C@_0BE@A@fftwl_codelet_m1_32?$AA@ 101bf040     FFTW3l:codlist.obj
 0004:00019054       ??_C@_0BE@A@fftwl_codelet_m1_64?$AA@ 101bf054     FFTW3l:codlist.obj
 0004:00019068       ??_C@_0BD@A@fftwl_codelet_t1_2?$AA@ 101bf068     FFTW3l:codlist.obj
 0004:0001907c       ??_C@_0BD@A@fftwl_codelet_t1_3?$AA@ 101bf07c     FFTW3l:codlist.obj
 0004:00019090       ??_C@_0BD@A@fftwl_codelet_t1_4?$AA@ 101bf090     FFTW3l:codlist.obj
 0004:000190a4       ??_C@_0BD@A@fftwl_codelet_t1_5?$AA@ 101bf0a4     FFTW3l:codlist.obj
 0004:000190b8       ??_C@_0BD@A@fftwl_codelet_t1_6?$AA@ 101bf0b8     FFTW3l:codlist.obj
 0004:000190cc       ??_C@_0BD@A@fftwl_codelet_t1_7?$AA@ 101bf0cc     FFTW3l:codlist.obj
 0004:000190e0       ??_C@_0BD@A@fftwl_codelet_t1_8?$AA@ 101bf0e0     FFTW3l:codlist.obj
 0004:000190f4       ??_C@_0BD@A@fftwl_codelet_t1_9?$AA@ 101bf0f4     FFTW3l:codlist.obj
 0004:00019108       ??_C@_0BE@A@fftwl_codelet_t1_10?$AA@ 101bf108     FFTW3l:codlist.obj
 0004:0001911c       ??_C@_0BE@A@fftwl_codelet_t1_12?$AA@ 101bf11c     FFTW3l:codlist.obj
 0004:00019130       ??_C@_0BE@A@fftwl_codelet_t1_15?$AA@ 101bf130     FFTW3l:codlist.obj
 0004:00019144       ??_C@_0BE@A@fftwl_codelet_t1_16?$AA@ 101bf144     FFTW3l:codlist.obj
 0004:00019158       ??_C@_0BE@A@fftwl_codelet_t1_32?$AA@ 101bf158     FFTW3l:codlist.obj
 0004:0001916c       ??_C@_0BE@A@fftwl_codelet_t1_64?$AA@ 101bf16c     FFTW3l:codlist.obj
 0004:00019180       ??_C@_0BD@A@fftwl_codelet_t2_4?$AA@ 101bf180     FFTW3l:codlist.obj
 0004:00019194       ??_C@_0BD@A@fftwl_codelet_t2_8?$AA@ 101bf194     FFTW3l:codlist.obj
 0004:000191a8       ??_C@_0BE@A@fftwl_codelet_t2_16?$AA@ 101bf1a8     FFTW3l:codlist.obj
 0004:000191bc       ??_C@_0BE@A@fftwl_codelet_t2_32?$AA@ 101bf1bc     FFTW3l:codlist.obj
 0004:000191d0       ??_C@_0BE@A@fftwl_codelet_t2_64?$AA@ 101bf1d0     FFTW3l:codlist.obj
 0004:00019558       ??_C@_0BE@A@fftwl_codelet_e01_8?$AA@ 101bf558     FFTW3l:codlist.obj
 0004:0001956c       ??_C@_0BE@A@fftwl_codelet_e10_8?$AA@ 101bf56c     FFTW3l:codlist.obj
 0004:00019580       ??_C@_0BF@A@fftwl_codelet_hc2r_3?$AA@ 101bf580     FFTW3l:codlist.obj
 0004:00019598       ??_C@_0BF@A@fftwl_codelet_hc2r_4?$AA@ 101bf598     FFTW3l:codlist.obj
 0004:000195b0       ??_C@_0BF@A@fftwl_codelet_hc2r_5?$AA@ 101bf5b0     FFTW3l:codlist.obj
 0004:000195c8       ??_C@_0BF@A@fftwl_codelet_hc2r_6?$AA@ 101bf5c8     FFTW3l:codlist.obj
 0004:000195e0       ??_C@_0BF@A@fftwl_codelet_hc2r_7?$AA@ 101bf5e0     FFTW3l:codlist.obj
 0004:000195f8       ??_C@_0BF@A@fftwl_codelet_hc2r_8?$AA@ 101bf5f8     FFTW3l:codlist.obj
 0004:00019610       ??_C@_0BF@A@fftwl_codelet_hc2r_9?$AA@ 101bf610     FFTW3l:codlist.obj
 0004:00019628       ??_C@_0BG@A@fftwl_codelet_hc2r_10?$AA@ 101bf628     FFTW3l:codlist.obj
 0004:00019640       ??_C@_0BG@A@fftwl_codelet_hc2r_11?$AA@ 101bf640     FFTW3l:codlist.obj
 0004:00019658       ??_C@_0BG@A@fftwl_codelet_hc2r_12?$AA@ 101bf658     FFTW3l:codlist.obj
 0004:00019670       ??_C@_0BG@A@fftwl_codelet_hc2r_13?$AA@ 101bf670     FFTW3l:codlist.obj
 0004:00019688       ??_C@_0BG@A@fftwl_codelet_hc2r_14?$AA@ 101bf688     FFTW3l:codlist.obj
 0004:000196a0       ??_C@_0BG@A@fftwl_codelet_hc2r_15?$AA@ 101bf6a0     FFTW3l:codlist.obj
 0004:000196b8       ??_C@_0BG@A@fftwl_codelet_hc2r_16?$AA@ 101bf6b8     FFTW3l:codlist.obj
 0004:000196d0       ??_C@_0BG@A@fftwl_codelet_hc2r_32?$AA@ 101bf6d0     FFTW3l:codlist.obj
 0004:000196e8       ??_C@_0BH@A@fftwl_codelet_mhc2r_32?$AA@ 101bf6e8     FFTW3l:codlist.obj
 0004:00019700       ??_C@_0BH@A@fftwl_codelet_mhc2r_64?$AA@ 101bf700     FFTW3l:codlist.obj
 0004:00019718       ??_C@_0BI@A@fftwl_codelet_mhc2r_128?$AA@ 101bf718     FFTW3l:codlist.obj
 0004:00019730       ??_C@_0BD@A@fftwl_codelet_hb_2?$AA@ 101bf730     FFTW3l:codlist.obj
 0004:00019744       ??_C@_0BD@A@fftwl_codelet_hb_3?$AA@ 101bf744     FFTW3l:codlist.obj
 0004:00019758       ??_C@_0BD@A@fftwl_codelet_hb_4?$AA@ 101bf758     FFTW3l:codlist.obj
 0004:0001976c       ??_C@_0BD@A@fftwl_codelet_hb_5?$AA@ 101bf76c     FFTW3l:codlist.obj
 0004:00019780       ??_C@_0BD@A@fftwl_codelet_hb_6?$AA@ 101bf780     FFTW3l:codlist.obj
 0004:00019794       ??_C@_0BD@A@fftwl_codelet_hb_7?$AA@ 101bf794     FFTW3l:codlist.obj
 0004:000197a8       ??_C@_0BD@A@fftwl_codelet_hb_8?$AA@ 101bf7a8     FFTW3l:codlist.obj
 0004:000197bc       ??_C@_0BD@A@fftwl_codelet_hb_9?$AA@ 101bf7bc     FFTW3l:codlist.obj
 0004:000197d0       ??_C@_0BE@A@fftwl_codelet_hb_10?$AA@ 101bf7d0     FFTW3l:codlist.obj
 0004:000197e4       ??_C@_0BE@A@fftwl_codelet_hb_12?$AA@ 101bf7e4     FFTW3l:codlist.obj
 0004:000197f8       ??_C@_0BE@A@fftwl_codelet_hb_15?$AA@ 101bf7f8     FFTW3l:codlist.obj
 0004:0001980c       ??_C@_0BE@A@fftwl_codelet_hb_16?$AA@ 101bf80c     FFTW3l:codlist.obj
 0004:00019820       ??_C@_0BE@A@fftwl_codelet_hb_32?$AA@ 101bf820     FFTW3l:codlist.obj
 0004:00019834       ??_C@_0BE@A@fftwl_codelet_hb_64?$AA@ 101bf834     FFTW3l:codlist.obj
 0004:00019848       ??_C@_0BI@A@fftwl_codelet_hc2rIII_2?$AA@ 101bf848     FFTW3l:codlist.obj
 0004:00019860       ??_C@_0BI@A@fftwl_codelet_hc2rIII_3?$AA@ 101bf860     FFTW3l:codlist.obj
 0004:00019878       ??_C@_0BI@A@fftwl_codelet_hc2rIII_4?$AA@ 101bf878     FFTW3l:codlist.obj
 0004:00019890       ??_C@_0BI@A@fftwl_codelet_hc2rIII_5?$AA@ 101bf890     FFTW3l:codlist.obj
 0004:000198a8       ??_C@_0BI@A@fftwl_codelet_hc2rIII_6?$AA@ 101bf8a8     FFTW3l:codlist.obj
 0004:000198c0       ??_C@_0BI@A@fftwl_codelet_hc2rIII_7?$AA@ 101bf8c0     FFTW3l:codlist.obj
 0004:000198d8       ??_C@_0BI@A@fftwl_codelet_hc2rIII_8?$AA@ 101bf8d8     FFTW3l:codlist.obj
 0004:000198f0       ??_C@_0BI@A@fftwl_codelet_hc2rIII_9?$AA@ 101bf8f0     FFTW3l:codlist.obj
 0004:00019908       ??_C@_0BJ@A@fftwl_codelet_hc2rIII_10?$AA@ 101bf908     FFTW3l:codlist.obj
 0004:00019924       ??_C@_0BJ@A@fftwl_codelet_hc2rIII_12?$AA@ 101bf924     FFTW3l:codlist.obj
 0004:00019940       ??_C@_0BJ@A@fftwl_codelet_hc2rIII_15?$AA@ 101bf940     FFTW3l:codlist.obj
 0004:0001995c       ??_C@_0BJ@A@fftwl_codelet_hc2rIII_16?$AA@ 101bf95c     FFTW3l:codlist.obj
 0004:00019978       ??_C@_0BJ@A@fftwl_codelet_hc2rIII_32?$AA@ 101bf978     FFTW3l:codlist.obj
 0004:00019994       ??_C@_0BK@A@fftwl_codelet_mhc2rIII_32?$AA@ 101bf994     FFTW3l:codlist.obj
 0004:000199b0       ??_C@_0BK@A@fftwl_codelet_mhc2rIII_64?$AA@ 101bf9b0     FFTW3l:codlist.obj
 0004:000199cc       ??_C@_0BF@A@fftwl_codelet_r2hc_2?$AA@ 101bf9cc     FFTW3l:codlist.obj
 0004:000199e4       ??_C@_0BF@A@fftwl_codelet_r2hc_3?$AA@ 101bf9e4     FFTW3l:codlist.obj
 0004:000199fc       ??_C@_0BF@A@fftwl_codelet_r2hc_4?$AA@ 101bf9fc     FFTW3l:codlist.obj
 0004:00019a14       ??_C@_0BF@A@fftwl_codelet_r2hc_5?$AA@ 101bfa14     FFTW3l:codlist.obj
 0004:00019a2c       ??_C@_0BF@A@fftwl_codelet_r2hc_6?$AA@ 101bfa2c     FFTW3l:codlist.obj
 0004:00019a44       ??_C@_0BF@A@fftwl_codelet_r2hc_7?$AA@ 101bfa44     FFTW3l:codlist.obj
 0004:00019a5c       ??_C@_0BF@A@fftwl_codelet_r2hc_8?$AA@ 101bfa5c     FFTW3l:codlist.obj
 0004:00019a74       ??_C@_0BF@A@fftwl_codelet_r2hc_9?$AA@ 101bfa74     FFTW3l:codlist.obj
 0004:00019a8c       ??_C@_0BG@A@fftwl_codelet_r2hc_10?$AA@ 101bfa8c     FFTW3l:codlist.obj
 0004:00019aa4       ??_C@_0BG@A@fftwl_codelet_r2hc_11?$AA@ 101bfaa4     FFTW3l:codlist.obj
 0004:00019abc       ??_C@_0BG@A@fftwl_codelet_r2hc_12?$AA@ 101bfabc     FFTW3l:codlist.obj
 0004:00019ad4       ??_C@_0BG@A@fftwl_codelet_r2hc_13?$AA@ 101bfad4     FFTW3l:codlist.obj
 0004:00019aec       ??_C@_0BG@A@fftwl_codelet_r2hc_14?$AA@ 101bfaec     FFTW3l:codlist.obj
 0004:00019b04       ??_C@_0BG@A@fftwl_codelet_r2hc_15?$AA@ 101bfb04     FFTW3l:codlist.obj
 0004:00019b1c       ??_C@_0BG@A@fftwl_codelet_r2hc_16?$AA@ 101bfb1c     FFTW3l:codlist.obj
 0004:00019b34       ??_C@_0BG@A@fftwl_codelet_r2hc_32?$AA@ 101bfb34     FFTW3l:codlist.obj
 0004:00019b4c       ??_C@_0BH@A@fftwl_codelet_mr2hc_32?$AA@ 101bfb4c     FFTW3l:codlist.obj
 0004:00019b64       ??_C@_0BH@A@fftwl_codelet_mr2hc_64?$AA@ 101bfb64     FFTW3l:codlist.obj
 0004:00019b7c       ??_C@_0BI@A@fftwl_codelet_mr2hc_128?$AA@ 101bfb7c     FFTW3l:codlist.obj
 0004:00019b94       ??_C@_0BD@A@fftwl_codelet_hf_2?$AA@ 101bfb94     FFTW3l:codlist.obj
 0004:00019ba8       ??_C@_0BD@A@fftwl_codelet_hf_3?$AA@ 101bfba8     FFTW3l:codlist.obj
 0004:00019bbc       ??_C@_0BD@A@fftwl_codelet_hf_4?$AA@ 101bfbbc     FFTW3l:codlist.obj
 0004:00019bd0       ??_C@_0BD@A@fftwl_codelet_hf_5?$AA@ 101bfbd0     FFTW3l:codlist.obj
 0004:00019be4       ??_C@_0BD@A@fftwl_codelet_hf_6?$AA@ 101bfbe4     FFTW3l:codlist.obj
 0004:00019bf8       ??_C@_0BD@A@fftwl_codelet_hf_7?$AA@ 101bfbf8     FFTW3l:codlist.obj
 0004:00019c0c       ??_C@_0BD@A@fftwl_codelet_hf_8?$AA@ 101bfc0c     FFTW3l:codlist.obj
 0004:00019c20       ??_C@_0BD@A@fftwl_codelet_hf_9?$AA@ 101bfc20     FFTW3l:codlist.obj
 0004:00019c34       ??_C@_0BE@A@fftwl_codelet_hf_10?$AA@ 101bfc34     FFTW3l:codlist.obj
 0004:00019c48       ??_C@_0BE@A@fftwl_codelet_hf_12?$AA@ 101bfc48     FFTW3l:codlist.obj
 0004:00019c5c       ??_C@_0BE@A@fftwl_codelet_hf_15?$AA@ 101bfc5c     FFTW3l:codlist.obj
 0004:00019c70       ??_C@_0BE@A@fftwl_codelet_hf_16?$AA@ 101bfc70     FFTW3l:codlist.obj
 0004:00019c84       ??_C@_0BE@A@fftwl_codelet_hf_32?$AA@ 101bfc84     FFTW3l:codlist.obj
 0004:00019c98       ??_C@_0BE@A@fftwl_codelet_hf_64?$AA@ 101bfc98     FFTW3l:codlist.obj
 0004:00019cac       ??_C@_0BE@A@fftwl_codelet_hf2_4?$AA@ 101bfcac     FFTW3l:codlist.obj
 0004:00019cc0       ??_C@_0BE@A@fftwl_codelet_hf2_8?$AA@ 101bfcc0     FFTW3l:codlist.obj
 0004:00019cd4       ??_C@_0BF@A@fftwl_codelet_hf2_16?$AA@ 101bfcd4     FFTW3l:codlist.obj
 0004:00019cec       ??_C@_0BF@A@fftwl_codelet_hf2_32?$AA@ 101bfcec     FFTW3l:codlist.obj
 0004:00019d04       ??_C@_0BF@A@fftwl_codelet_hf2_64?$AA@ 101bfd04     FFTW3l:codlist.obj
 0004:00019d1c       ??_C@_0BH@A@fftwl_codelet_r2hcII_2?$AA@ 101bfd1c     FFTW3l:codlist.obj
 0004:00019d34       ??_C@_0BH@A@fftwl_codelet_r2hcII_3?$AA@ 101bfd34     FFTW3l:codlist.obj
 0004:00019d4c       ??_C@_0BH@A@fftwl_codelet_r2hcII_4?$AA@ 101bfd4c     FFTW3l:codlist.obj
 0004:00019d64       ??_C@_0BH@A@fftwl_codelet_r2hcII_5?$AA@ 101bfd64     FFTW3l:codlist.obj
 0004:00019d7c       ??_C@_0BH@A@fftwl_codelet_r2hcII_6?$AA@ 101bfd7c     FFTW3l:codlist.obj
 0004:00019d94       ??_C@_0BH@A@fftwl_codelet_r2hcII_7?$AA@ 101bfd94     FFTW3l:codlist.obj
 0004:00019dac       ??_C@_0BH@A@fftwl_codelet_r2hcII_8?$AA@ 101bfdac     FFTW3l:codlist.obj
 0004:00019dc4       ??_C@_0BH@A@fftwl_codelet_r2hcII_9?$AA@ 101bfdc4     FFTW3l:codlist.obj
 0004:00019ddc       ??_C@_0BI@A@fftwl_codelet_r2hcII_10?$AA@ 101bfddc     FFTW3l:codlist.obj
 0004:00019df4       ??_C@_0BI@A@fftwl_codelet_r2hcII_12?$AA@ 101bfdf4     FFTW3l:codlist.obj
 0004:00019e0c       ??_C@_0BI@A@fftwl_codelet_r2hcII_15?$AA@ 101bfe0c     FFTW3l:codlist.obj
 0004:00019e24       ??_C@_0BI@A@fftwl_codelet_r2hcII_16?$AA@ 101bfe24     FFTW3l:codlist.obj
 0004:00019e3c       ??_C@_0BI@A@fftwl_codelet_r2hcII_32?$AA@ 101bfe3c     FFTW3l:codlist.obj
 0004:00019e54       ??_C@_0BJ@A@fftwl_codelet_mr2hcII_32?$AA@ 101bfe54     FFTW3l:codlist.obj
 0004:00019e70       ??_C@_0BJ@A@fftwl_codelet_mr2hcII_64?$AA@ 101bfe70     FFTW3l:codlist.obj
 0004:0001f1e0       _fftwl_dft_t_genus         101c51e0     FFTW3l:t.obj
 0004:0001f1e8       _fftwl_dft_n_genus         101c51e8     FFTW3l:n.obj
 0004:0001f1f0       _fftwl_rdft_r2r_genus      101c51f0     FFTW3l:r2r.obj
 0004:0001f1f8       _fftwl_rdft_hc2r_genus     101c51f8     FFTW3l:hc2r.obj
 0004:0001f204       _fftwl_rdft_hc2rIII_genus  101c5204     FFTW3l:hc2r.obj
 0004:0001f210       _fftwl_rdft_hf_genus       101c5210     FFTW3l:hfb.obj
 0004:0001f21c       _fftwl_rdft_hb_genus       101c521c     FFTW3l:hfb.obj
 0004:0001f228       _fftwl_rdft_r2hc_genus     101c5228     FFTW3l:r2hc.obj
 0004:0001f234       _fftwl_rdft_r2hcII_genus   101c5234     FFTW3l:r2hc.obj

 entry point at        0001:000000ab

 Static symbols

 0001:00091630       _destroy                   10092630 f   FFTW3f:hc2hc.obj
 0001:00091664       _awake                     10092664 f   FFTW3f:hc2hc.obj
 0001:000916e8       _print                     100926e8 f   FFTW3f:hc2hc.obj
 0001:000913b0       _destroy                   100923b0 f   FFTW3f:ct.obj
 0001:000913d4       _awake                     100923d4 f   FFTW3f:ct.obj
 0001:00091410       _print                     10092410 f   FFTW3f:ct.obj
 0001:00090f34       _apply                     10091f34 f   FFTW3f:hc2hc-dit.obj
 0001:00091030       _applicable0               10092030 f   FFTW3f:hc2hc-dit.obj
 0001:0009114c       _applicable                1009214c f   FFTW3f:hc2hc-dit.obj
 0001:000911c8       _finish                    100921c8 f   FFTW3f:hc2hc-dit.obj
 0001:0009124c       _mkplan                    1009224c f   FFTW3f:hc2hc-dit.obj
 0001:000906b8       _cpy                       100916b8 f   FFTW3f:hc2hc-buf.obj
 0001:000908b4       _doit                      100918b4 f   FFTW3f:hc2hc-buf.obj
 0001:00090940       _apply_dit                 10091940 f   FFTW3f:hc2hc-buf.obj
 0001:00090afc       _apply_dif                 10091afc f   FFTW3f:hc2hc-buf.obj
 0001:00090cbc       _applicable0               10091cbc f   FFTW3f:hc2hc-buf.obj
 0001:00090da0       _applicable                10091da0 f   FFTW3f:hc2hc-buf.obj
 0001:00090e0c       _finish                    10091e0c f   FFTW3f:hc2hc-buf.obj
 0001:00090ec4       _mkplan_ditbuf             10091ec4 f   FFTW3f:hc2hc-buf.obj
 0001:00090efc       _mkplan_difbuf             10091efc f   FFTW3f:hc2hc-buf.obj
 0001:00090360       _apply                     10091360 f   FFTW3f:hc2hc-dif.obj
 0001:00090468       _applicable0               10091468 f   FFTW3f:hc2hc-dif.obj
 0001:00090580       _applicable                10091580 f   FFTW3f:hc2hc-dif.obj
 0001:000905fc       _finish                    100915fc f   FFTW3f:hc2hc-dif.obj
 0001:00090680       _mkplan                    10091680 f   FFTW3f:hc2hc-dif.obj
 0001:0008ff60       _apply_r2hc                10090f60 f   FFTW3f:direct2.obj
 0001:00126f04       _apply_hc2r                10127f04 f   FFTW3d:direct2.obj
 0001:0008ef84       _destroy                   1008ff84 f   FFTW3f:direct.obj
 0001:00090030       _print                     10091030 f   FFTW3f:direct2.obj
 0001:00090060       _applicable                10091060 f   FFTW3f:direct2.obj
 0001:00090198       _mkplan                    10091198 f   FFTW3f:direct2.obj
 0001:0008fa28       _apply_r2hc                10090a28 f   FFTW3f:direct.obj
 0001:0008fa58       _apply_hc2r                10090a58 f   FFTW3f:direct.obj
 0001:0019ae04       _apply_r2r                 1019be04 f   FFTW3l:direct.obj
 0001:0008fa88       _destroy                   10090a88 f   FFTW3f:direct.obj
 0001:0008fab8       _print                     10090ab8 f   FFTW3f:direct.obj
 0001:00126980       _ioffset                   10127980 f   FFTW3d:direct.obj
 0001:0008fae8       _applicable                10090ae8 f   FFTW3f:direct.obj
 0001:0008fcb8       _mkplan                    10090cb8 f   FFTW3f:direct.obj
 0001:0019a320       _apply                     1019b320 f   FFTW3l:ct-ditf.obj
 0001:0008f894       _applicable                10090894 f   FFTW3f:ct-ditf.obj
 0001:0008f93c       _finish                    1009093c f   FFTW3f:ct-ditf.obj
 0001:0008f994       _mkcld                     10090994 f   FFTW3f:ct-ditf.obj
 0001:0008f9ec       _mkplan                    100909ec f   FFTW3f:ct-ditf.obj
 0001:0008f3bc       _cpy                       100903bc f   FFTW3f:ct-ditbuf.obj
 0001:0008f514       _doit                      10090514 f   FFTW3f:ct-ditbuf.obj
 0001:0008f598       _apply                     10090598 f   FFTW3f:ct-ditbuf.obj
 0001:0008f6e0       _applicable0               100906e0 f   FFTW3f:ct-ditbuf.obj
 0001:0008f77c       _applicable                1009077c f   FFTW3f:ct-ditbuf.obj
 0001:0008f7e8       _finish                    100907e8 f   FFTW3f:ct-ditbuf.obj
 0001:0008f858       _mkplan                    10090858 f   FFTW3f:ct-ditbuf.obj
 0001:0008f140       _apply                     10090140 f   FFTW3f:ct-dit.obj
 0001:0008f1dc       _applicable0               100901dc f   FFTW3f:ct-dit.obj
 0001:0008f2b8       _applicable                100902b8 f   FFTW3f:ct-dit.obj
 0001:0008f334       _finish                    10090334 f   FFTW3f:ct-dit.obj
 0001:0008f380       _mkplan                    10090380 f   FFTW3f:ct-dit.obj
 0001:0008ef58       _apply                     1008ff58 f   FFTW3f:direct.obj
 0001:0008ef84       _destroy                   1008ff84 f   FFTW3f:direct.obj
 0001:0019a4d8       _print                     1019b4d8 f   FFTW3l:direct.obj
 0001:0008efa0       _applicable                1008ffa0 f   FFTW3f:direct.obj
 0001:0008f078       _mkplan                    10090078 f   FFTW3f:direct.obj
 0001:0008ee4c       _sse_works                 1008fe4c f   FFTW3f:sse.obj
 0001:0008ef44       _sighandler                1008ff44 f   FFTW3f:sse.obj
 0001:0019a258       _okp                       1019b258 f   FFTW3l:r2hc.obj
 0001:0008ed5c       _okp                       1008fd5c f   FFTW3f:hfb.obj
 0001:00125e08       _okp                       10126e08 f   FFTW3d:hc2r.obj
 0001:0019a180       _okp                       1019b180 f   FFTW3l:r2r.obj
 0001:00125da8       _okp                       10126da8 f   FFTW3d:n.obj
 0001:0008ed5c       _okp                       1008fd5c f   FFTW3f:hfb.obj
 0001:0008ec60       _okp                       1008fc60 f   FFTW3f:q1b.obj
 0001:0008eb98       _okp                       1008fb98 f   FFTW3f:q1f.obj
 0001:0008eb04       _okp                       1008fb04 f   FFTW3f:t1b.obj
 0001:0008ea2c       _okp                       1008fa2c f   FFTW3f:t1f.obj
 0001:0008e944       _okp                       1008f944 f   FFTW3f:n2b.obj
 0001:0008e85c       _okp                       1008f85c f   FFTW3f:n2f.obj
 0001:0008e774       _okp                       1008f774 f   FFTW3f:n1b.obj
 0001:0008e670       _okp                       1008f670 f   FFTW3f:n1f.obj
 0001:0008ca94       _mr2hcII_64_0              1008da94 f   FFTW3f:mr2hcII_64.obj
 0001:0008e52c       _mr2hcII_64                1008f52c f   FFTW3f:mr2hcII_64.obj
 0001:0008c044       _mr2hcII_32_0              1008d044 f   FFTW3f:mr2hcII_32.obj
 0001:0008ca0c       _mr2hcII_32                1008da0c f   FFTW3f:mr2hcII_32.obj
 0001:0008b5e8       _r2hcII_32                 1008c5e8 f   FFTW3f:r2hcII_32.obj
 0001:0008b204       _r2hcII_16                 1008c204 f   FFTW3f:r2hcII_16.obj
 0001:0008ade0       _r2hcII_15                 1008bde0 f   FFTW3f:r2hcII_15.obj
 0001:0008ab54       _r2hcII_12                 1008bb54 f   FFTW3f:r2hcII_12.obj
 0001:0008a92c       _r2hcII_10                 1008b92c f   FFTW3f:r2hcII_10.obj
 0001:0008a650       _r2hcII_9                  1008b650 f   FFTW3f:r2hcII_9.obj
 0001:0008a4a8       _r2hcII_8                  1008b4a8 f   FFTW3f:r2hcII_8.obj
 0001:0008a2f0       _r2hcII_7                  1008b2f0 f   FFTW3f:r2hcII_7.obj
 0001:0008a1d0       _r2hcII_6                  1008b1d0 f   FFTW3f:r2hcII_6.obj
 0001:0008a0c4       _r2hcII_5                  1008b0c4 f   FFTW3f:r2hcII_5.obj
 0001:0008a000       _r2hcII_4                  1008b000 f   FFTW3f:r2hcII_4.obj
 0001:00089f5c       _r2hcII_3                  1008af5c f   FFTW3f:r2hcII_3.obj
 0001:00089e68       _r2hcII_2                  1008ae68 f   FFTW3f:r2hcII_2.obj
 0001:000844e8       _hf2_64                    100854e8 f   FFTW3f:hf2_64.obj
 0001:00082358       _hf2_32                    10083358 f   FFTW3f:hf2_32.obj
 0001:00081490       _hf2_16                    10082490 f   FFTW3f:hf2_16.obj
 0001:00080f7c       _hf2_8                     10081f7c f   FFTW3f:hf2_8.obj
 0001:00080d9c       _hf2_4                     10081d9c f   FFTW3f:hf2_4.obj
 0001:0007ce78       _hf_64                     1007de78 f   FFTW3f:hf_64.obj
 0001:0007b190       _hf_32                     1007c190 f   FFTW3f:hf_32.obj
 0001:0007a694       _hf_16                     1007b694 f   FFTW3f:hf_16.obj
 0001:00079b24       _hf_15                     1007ab24 f   FFTW3f:hf_15.obj
 0001:00079408       _hf_12                     1007a408 f   FFTW3f:hf_12.obj
 0001:00078d18       _hf_10                     10079d18 f   FFTW3f:hf_10.obj
 0001:000786dc       _hf_9                      100796dc f   FFTW3f:hf_9.obj
 0001:000782d4       _hf_8                      100792d4 f   FFTW3f:hf_8.obj
 0001:00077e28       _hf_7                      10078e28 f   FFTW3f:hf_7.obj
 0001:00077b10       _hf_6                      10078b10 f   FFTW3f:hf_6.obj
 0001:0007781c       _hf_5                      1007881c f   FFTW3f:hf_5.obj
 0001:0007766c       _hf_4                      1007866c f   FFTW3f:hf_4.obj
 0001:0007750c       _hf_3                      1007850c f   FFTW3f:hf_3.obj
 0001:0007743c       _hf_2                      1007843c f   FFTW3f:hf_2.obj
 0001:000739ac       _mr2hc_128_0               100749ac f   FFTW3f:mr2hc_128.obj
 0001:000773b4       _mr2hc_128                 100783b4 f   FFTW3f:mr2hc_128.obj
 0001:000725ec       _mr2hc_64_0                100735ec f   FFTW3f:mr2hc_64.obj
 0001:00073924       _mr2hc_64                  10074924 f   FFTW3f:mr2hc_64.obj
 0001:00071e84       _mr2hc_32_0                10072e84 f   FFTW3f:mr2hc_32.obj
 0001:00072564       _mr2hc_32                  10073564 f   FFTW3f:mr2hc_32.obj
 0001:0007167c       _r2hc_32                   1007267c f   FFTW3f:r2hc_32.obj
 0001:0007131c       _r2hc_16                   1007231c f   FFTW3f:r2hc_16.obj
 0001:00070f38       _r2hc_15                   10071f38 f   FFTW3f:r2hc_15.obj
 0001:00070b64       _r2hc_14                   10071b64 f   FFTW3f:r2hc_14.obj
 0001:0007070c       _r2hc_13                   1007170c f   FFTW3f:r2hc_13.obj
 0001:000704c4       _r2hc_12                   100714c4 f   FFTW3f:r2hc_12.obj
 0001:00070100       _r2hc_11                   10071100 f   FFTW3f:r2hc_11.obj
 0001:0006fec8       _r2hc_10                   10070ec8 f   FFTW3f:r2hc_10.obj
 0001:0006fc18       _r2hc_9                    10070c18 f   FFTW3f:r2hc_9.obj
 0001:0006fac8       _r2hc_8                    10070ac8 f   FFTW3f:r2hc_8.obj
 0001:0006f90c       _r2hc_7                    1007090c f   FFTW3f:r2hc_7.obj
 0001:0006f7f8       _r2hc_6                    100707f8 f   FFTW3f:r2hc_6.obj
 0001:0006f6e4       _r2hc_5                    100706e4 f   FFTW3f:r2hc_5.obj
 0001:0006f628       _r2hc_4                    10070628 f   FFTW3f:r2hc_4.obj
 0001:0006f578       _r2hc_3                    10070578 f   FFTW3f:r2hc_3.obj
 0001:0006f4f4       _r2hc_2                    100704f4 f   FFTW3f:r2hc_2.obj
 0001:0006da5c       _mhc2rIII_64_0             1006ea5c f   FFTW3f:mhc2rIII_64.obj
 0001:0006f46c       _mhc2rIII_64               1007046c f   FFTW3f:mhc2rIII_64.obj
 0001:0006d100       _mhc2rIII_32_0             1006e100 f   FFTW3f:mhc2rIII_32.obj
 0001:0006d9d4       _mhc2rIII_32               1006e9d4 f   FFTW3f:mhc2rIII_32.obj
 0001:0006c794       _hc2rIII_32                1006d794 f   FFTW3f:hc2rIII_32.obj
 0001:0006c394       _hc2rIII_16                1006d394 f   FFTW3f:hc2rIII_16.obj
 0001:0006bfd4       _hc2rIII_15                1006cfd4 f   FFTW3f:hc2rIII_15.obj
 0001:0006bd24       _hc2rIII_12                1006cd24 f   FFTW3f:hc2rIII_12.obj
 0001:0006bae8       _hc2rIII_10                1006cae8 f   FFTW3f:hc2rIII_10.obj
 0001:0006b8b4       _hc2rIII_9                 1006c8b4 f   FFTW3f:hc2rIII_9.obj
 0001:0006b6f8       _hc2rIII_8                 1006c6f8 f   FFTW3f:hc2rIII_8.obj
 0001:0006b4ec       _hc2rIII_7                 1006c4ec f   FFTW3f:hc2rIII_7.obj
 0001:0006b3c8       _hc2rIII_6                 1006c3c8 f   FFTW3f:hc2rIII_6.obj
 0001:0006b2a4       _hc2rIII_5                 1006c2a4 f   FFTW3f:hc2rIII_5.obj
 0001:0006b1d4       _hc2rIII_4                 1006c1d4 f   FFTW3f:hc2rIII_4.obj
 0001:0006b130       _hc2rIII_3                 1006c130 f   FFTW3f:hc2rIII_3.obj
 0001:0006b00c       _hc2rIII_2                 1006c00c f   FFTW3f:hc2rIII_2.obj
 0001:00066a50       _hb_64                     10067a50 f   FFTW3f:hb_64.obj
 0001:00064d78       _hb_32                     10065d78 f   FFTW3f:hb_32.obj
 0001:00064408       _hb_16                     10065408 f   FFTW3f:hb_16.obj
 0001:000637a8       _hb_15                     100647a8 f   FFTW3f:hb_15.obj
 0001:00063100       _hb_12                     10064100 f   FFTW3f:hb_12.obj
 0001:00062a5c       _hb_10                     10063a5c f   FFTW3f:hb_10.obj
 0001:000623c0       _hb_9                      100633c0 f   FFTW3f:hb_9.obj
 0001:00061f90       _hb_8                      10062f90 f   FFTW3f:hb_8.obj
 0001:00061a4c       _hb_7                      10062a4c f   FFTW3f:hb_7.obj
 0001:00061734       _hb_6                      10062734 f   FFTW3f:hb_6.obj
 0001:0006145c       _hb_5                      1006245c f   FFTW3f:hb_5.obj
 0001:00061288       _hb_4                      10062288 f   FFTW3f:hb_4.obj
 0001:00061110       _hb_3                      10062110 f   FFTW3f:hb_3.obj
 0001:00061040       _hb_2                      10062040 f   FFTW3f:hb_2.obj
 0001:0005d7ec       _mhc2r_128_0               1005e7ec f   FFTW3f:mhc2r_128.obj
 0001:00060fb8       _mhc2r_128                 10061fb8 f   FFTW3f:mhc2r_128.obj
 0001:0005c12c       _mhc2r_64_0                1005d12c f   FFTW3f:mhc2r_64.obj
 0001:0005d764       _mhc2r_64                  1005e764 f   FFTW3f:mhc2r_64.obj
 0001:0005b93c       _mhc2r_32_0                1005c93c f   FFTW3f:mhc2r_32.obj
 0001:0005c0a4       _mhc2r_32                  1005d0a4 f   FFTW3f:mhc2r_32.obj
 0001:0005b140       _hc2r_32                   1005c140 f   FFTW3f:hc2r_32.obj
 0001:0005ade4       _hc2r_16                   1005bde4 f   FFTW3f:hc2r_16.obj
 0001:0005a9d4       _hc2r_15                   1005b9d4 f   FFTW3f:hc2r_15.obj
 0001:0005a60c       _hc2r_14                   1005b60c f   FFTW3f:hc2r_14.obj
 0001:0005a1b4       _hc2r_13                   1005b1b4 f   FFTW3f:hc2r_13.obj
 0001:00059f64       _hc2r_12                   1005af64 f   FFTW3f:hc2r_12.obj
 0001:00059b14       _hc2r_11                   1005ab14 f   FFTW3f:hc2r_11.obj
 0001:000598dc       _hc2r_10                   1005a8dc f   FFTW3f:hc2r_10.obj
 0001:000596b0       _hc2r_9                    1005a6b0 f   FFTW3f:hc2r_9.obj
 0001:00059534       _hc2r_8                    1005a534 f   FFTW3f:hc2r_8.obj
 0001:00059330       _hc2r_7                    1005a330 f   FFTW3f:hc2r_7.obj
 0001:00059214       _hc2r_6                    1005a214 f   FFTW3f:hc2r_6.obj
 0001:000590e8       _hc2r_5                    1005a0e8 f   FFTW3f:hc2r_5.obj
 0001:0005901c       _hc2r_4                    1005a01c f   FFTW3f:hc2r_4.obj
 0001:00058f70       _hc2r_3                    10059f70 f   FFTW3f:hc2r_3.obj
 0001:00058d6c       _e10_8_0                   10059d6c f   FFTW3f:e10_8.obj
 0001:00058ef4       _e10_8                     10059ef4 f   FFTW3f:e10_8.obj
 0001:00058b7c       _e01_8_0                   10059b7c f   FFTW3f:e01_8.obj
 0001:00058cf0       _e01_8                     10059cf0 f   FFTW3f:e01_8.obj
 0001:00053ec8       _t2_64                     10054ec8 f   FFTW3f:t2_64.obj
 0001:00051f18       _t2_32                     10052f18 f   FFTW3f:t2_32.obj
 0001:00051398       _t2_16                     10052398 f   FFTW3f:t2_16.obj
 0001:00050eec       _t2_8                      10051eec f   FFTW3f:t2_8.obj
 0001:00050d24       _t2_4                      10051d24 f   FFTW3f:t2_4.obj
 0001:0004cc48       _t1_64                     1004dc48 f   FFTW3f:t1_64.obj
 0001:0004b1e4       _t1_32                     1004c1e4 f   FFTW3f:t1_32.obj
 0001:0004a828       _t1_16                     1004b828 f   FFTW3f:t1_16.obj
 0001:00049dd0       _t1_15                     1004add0 f   FFTW3f:t1_15.obj
 0001:000497a4       _t1_12                     1004a7a4 f   FFTW3f:t1_12.obj
 0001:0004918c       _t1_10                     1004a18c f   FFTW3f:t1_10.obj
 0001:00048be8       _t1_9                      10049be8 f   FFTW3f:t1_9.obj
 0001:0004884c       _t1_8                      1004984c f   FFTW3f:t1_8.obj
 0001:00048404       _t1_7                      10049404 f   FFTW3f:t1_7.obj
 0001:00048138       _t1_6                      10049138 f   FFTW3f:t1_6.obj
 0001:00047e7c       _t1_5                      10048e7c f   FFTW3f:t1_5.obj
 0001:00047cdc       _t1_4                      10048cdc f   FFTW3f:t1_4.obj
 0001:00047ba0       _t1_3                      10048ba0 f   FFTW3f:t1_3.obj
 0001:00047af0       _t1_2                      10048af0 f   FFTW3f:t1_2.obj
 0001:00044548       _m1_64_0                   10045548 f   FFTW3f:m1_64.obj
 0001:00047a60       _m1_64                     10048a60 f   FFTW3f:m1_64.obj
 0001:00043438       _m1_32_0                   10044438 f   FFTW3f:m1_32.obj
 0001:000444b8       _m1_32                     100454b8 f   FFTW3f:m1_32.obj
 0001:00042d98       _m1_16_0                   10043d98 f   FFTW3f:m1_16.obj
 0001:000433a8       _m1_16                     100443a8 f   FFTW3f:m1_16.obj
 0001:00042644       _n1_16                     10043644 f   FFTW3f:n1_16.obj
 0001:00041d78       _n1_15                     10042d78 f   FFTW3f:n1_15.obj
 0001:000415ec       _n1_14                     100425ec f   FFTW3f:n1_14.obj
 0001:00040cf0       _n1_13                     10041cf0 f   FFTW3f:n1_13.obj
 0001:00040838       _n1_12                     10041838 f   FFTW3f:n1_12.obj
 0001:000400a0       _n1_11                     100410a0 f   FFTW3f:n1_11.obj
 0001:0003fbec       _n1_10                     10040bec f   FFTW3f:n1_10.obj
 0001:0003f730       _n1_9                      10040730 f   FFTW3f:n1_9.obj
 0001:0003f458       _n1_8                      10040458 f   FFTW3f:n1_8.obj
 0001:0003f0c4       _n1_7                      100400c4 f   FFTW3f:n1_7.obj
 0001:0003ee80       _n1_6                      1003fe80 f   FFTW3f:n1_6.obj
 0001:0003ec64       _n1_5                      1003fc64 f   FFTW3f:n1_5.obj
 0001:0003eb40       _n1_4                      1003fb40 f   FFTW3f:n1_4.obj
 0001:0003ea3c       _n1_3                      1003fa3c f   FFTW3f:n1_3.obj
 0001:0003e990       _n1_2                      1003f990 f   FFTW3f:n1_2.obj
 0001:0003d818       _q1_6                      1003e818 f   FFTW3f:q1_6.obj
 0001:0003cb04       _q1_5                      1003db04 f   FFTW3f:q1_5.obj
 0001:0003c740       _q1_3                      1003d740 f   FFTW3f:q1_3.obj
 0001:0003a6d4       _q1_8                      1003b6d4 f   FFTW3f:q1_8.obj
 0001:0003a088       _q1_4                      1003b088 f   FFTW3f:q1_4.obj
 0001:00039f28       _q1_2                      1003af28 f   FFTW3f:q1_2.obj
 0001:00038490       _q1bv_8                    10039490 f   FFTW3f:q1bv_8.obj
 0001:00035bcc       _BYTW                      10036bcc f   FFTW3f:t1bv_64.obj
 0001:00037ec4       _q1bv_4                    10038ec4 f   FFTW3f:q1bv_4.obj
 0001:00037d84       _q1bv_2                    10038d84 f   FFTW3f:q1bv_2.obj
 0001:00036308       _q1fv_8                    10037308 f   FFTW3f:q1fv_8.obj
 0001:0003032c       _BYTWJ                     1003132c f   FFTW3f:t1fv_64.obj
 0001:00035d3c       _q1fv_4                    10036d3c f   FFTW3f:q1fv_4.obj
 0001:00035bfc       _q1fv_2                    10036bfc f   FFTW3f:q1fv_2.obj
 0001:0003376c       _t1bv_64                   1003476c f   FFTW3f:t1bv_64.obj
 0001:00035bcc       _BYTW                      10036bcc f   FFTW3f:t1bv_64.obj
 0001:000328e0       _t1bv_32                   100338e0 f   FFTW3f:t1bv_32.obj
 0001:000322d4       _t1bv_16                   100332d4 f   FFTW3f:t1bv_16.obj
 0001:00031bc4       _t1bv_15                   10032bc4 f   FFTW3f:t1bv_15.obj
 0001:0003176c       _t1bv_12                   1003276c f   FFTW3f:t1bv_12.obj
 0001:00031360       _t1bv_10                   10032360 f   FFTW3f:t1bv_10.obj
 0001:00030f30       _t1bv_9                    10031f30 f   FFTW3f:t1bv_9.obj
 0001:00030cb4       _t1bv_8                    10031cb4 f   FFTW3f:t1bv_8.obj
 0001:000309c8       _t1bv_7                    100319c8 f   FFTW3f:t1bv_7.obj
 0001:000307e4       _t1bv_6                    100317e4 f   FFTW3f:t1bv_6.obj
 0001:00030620       _t1bv_5                    10031620 f   FFTW3f:t1bv_5.obj
 0001:000304fc       _t1bv_4                    100314fc f   FFTW3f:t1bv_4.obj
 0001:000303f8       _t1bv_3                    100313f8 f   FFTW3f:t1bv_3.obj
 0001:0003035c       _t1bv_2                    1003135c f   FFTW3f:t1bv_2.obj
 0001:0002dec4       _t1fv_64                   1002eec4 f   FFTW3f:t1fv_64.obj
 0001:0003032c       _BYTWJ                     1003132c f   FFTW3f:t1fv_64.obj
 0001:0002d01c       _t1fv_32                   1002e01c f   FFTW3f:t1fv_32.obj
 0001:0002ca0c       _t1fv_16                   1002da0c f   FFTW3f:t1fv_16.obj
 0001:0002c2f8       _t1fv_15                   1002d2f8 f   FFTW3f:t1fv_15.obj
 0001:0002beb0       _t1fv_12                   1002ceb0 f   FFTW3f:t1fv_12.obj
 0001:0002baa4       _t1fv_10                   1002caa4 f   FFTW3f:t1fv_10.obj
 0001:0002b680       _t1fv_9                    1002c680 f   FFTW3f:t1fv_9.obj
 0001:0002b404       _t1fv_8                    1002c404 f   FFTW3f:t1fv_8.obj
 0001:0002b118       _t1fv_7                    1002c118 f   FFTW3f:t1fv_7.obj
 0001:0002af34       _t1fv_6                    1002bf34 f   FFTW3f:t1fv_6.obj
 0001:0002ad70       _t1fv_5                    1002bd70 f   FFTW3f:t1fv_5.obj
 0001:0002ac50       _t1fv_4                    1002bc50 f   FFTW3f:t1fv_4.obj
 0001:0002ab4c       _t1fv_3                    1002bb4c f   FFTW3f:t1fv_3.obj
 0001:0002aab0       _t1fv_2                    1002bab0 f   FFTW3f:t1fv_2.obj
 0001:00028eac       _m2bv_64_0                 10029eac f   FFTW3f:m2bv_64.obj
 0001:0002aa20       _m2bv_64                   1002ba20 f   FFTW3f:m2bv_64.obj
 0001:0002839c       _m2bv_32_0                 1002939c f   FFTW3f:m2bv_32.obj
 0001:00028e1c       _m2bv_32                   10029e1c f   FFTW3f:m2bv_32.obj
 0001:00027f64       _m2bv_16_0                 10028f64 f   FFTW3f:m2bv_16.obj
 0001:0002830c       _m2bv_16                   1002930c f   FFTW3f:m2bv_16.obj
 0001:00026350       _m2fv_64_0                 10027350 f   FFTW3f:m2fv_64.obj
 0001:00027ed4       _m2fv_64                   10028ed4 f   FFTW3f:m2fv_64.obj
 0001:0002584c       _m2fv_32_0                 1002684c f   FFTW3f:m2fv_32.obj
 0001:000262c0       _m2fv_32                   100272c0 f   FFTW3f:m2fv_32.obj
 0001:00025410       _m2fv_16_0                 10026410 f   FFTW3f:m2fv_16.obj
 0001:000257bc       _m2fv_16                   100267bc f   FFTW3f:m2fv_16.obj
 0001:000234e0       _m1bv_64_0                 100244e0 f   FFTW3f:m1bv_64.obj
 0001:0002537c       _m1bv_64                   1002637c f   FFTW3f:m1bv_64.obj
 0001:000227d4       _m1bv_32_0                 100237d4 f   FFTW3f:m1bv_32.obj
 0001:0002344c       _m1bv_32                   1002444c f   FFTW3f:m1bv_32.obj
 0001:00022294       _m1bv_16_0                 10023294 f   FFTW3f:m1bv_16.obj
 0001:00022740       _m1bv_16                   10023740 f   FFTW3f:m1bv_16.obj
 0001:00020348       _m1fv_64_0                 10021348 f   FFTW3f:m1fv_64.obj
 0001:00022200       _m1fv_64                   10023200 f   FFTW3f:m1fv_64.obj
 0001:0001f638       _m1fv_32_0                 10020638 f   FFTW3f:m1fv_32.obj
 0001:000202b4       _m1fv_32                   100212b4 f   FFTW3f:m1fv_32.obj
 0001:0001f0f4       _m1fv_16_0                 100200f4 f   FFTW3f:m1fv_16.obj
 0001:0001f5a4       _m1fv_16                   100205a4 f   FFTW3f:m1fv_16.obj
 0001:0001ece0       _n2bv_16                   1001fce0 f   FFTW3f:n2bv_16.obj
 0001:0001e784       _n2bv_15                   1001f784 f   FFTW3f:n2bv_15.obj
 0001:0001e280       _n2bv_14                   1001f280 f   FFTW3f:n2bv_14.obj
 0001:0001dcec       _n2bv_13                   1001ecec f   FFTW3f:n2bv_13.obj
 0001:0001d9f8       _n2bv_12                   1001e9f8 f   FFTW3f:n2bv_12.obj
 0001:0001d4e4       _n2bv_11                   1001e4e4 f   FFTW3f:n2bv_11.obj
 0001:0001d200       _n2bv_10                   1001e200 f   FFTW3f:n2bv_10.obj
 0001:0001cee0       _n2bv_9                    1001dee0 f   FFTW3f:n2bv_9.obj
 0001:0001cd1c       _n2bv_8                    1001dd1c f   FFTW3f:n2bv_8.obj
 0001:0001cad4       _n2bv_7                    1001dad4 f   FFTW3f:n2bv_7.obj
 0001:0001c970       _n2bv_6                    1001d970 f   FFTW3f:n2bv_6.obj
 0001:0001c818       _n2bv_5                    1001d818 f   FFTW3f:n2bv_5.obj
 0001:0001c738       _n2bv_4                    1001d738 f   FFTW3f:n2bv_4.obj
 0001:0001c660       _n2bv_3                    1001d660 f   FFTW3f:n2bv_3.obj
 0001:0001c5cc       _n2bv_2                    1001d5cc f   FFTW3f:n2bv_2.obj
 0001:0001c1b8       _n2fv_16                   1001d1b8 f   FFTW3f:n2fv_16.obj
 0001:0001bc48       _n2fv_15                   1001cc48 f   FFTW3f:n2fv_15.obj
 0001:0001b744       _n2fv_14                   1001c744 f   FFTW3f:n2fv_14.obj
 0001:0001b1b4       _n2fv_13                   1001c1b4 f   FFTW3f:n2fv_13.obj
 0001:0001aeb4       _n2fv_12                   1001beb4 f   FFTW3f:n2fv_12.obj
 0001:0001a9a8       _n2fv_11                   1001b9a8 f   FFTW3f:n2fv_11.obj
 0001:0001a6c4       _n2fv_10                   1001b6c4 f   FFTW3f:n2fv_10.obj
 0001:0001a3a4       _n2fv_9                    1001b3a4 f   FFTW3f:n2fv_9.obj
 0001:0001a1e0       _n2fv_8                    1001b1e0 f   FFTW3f:n2fv_8.obj
 0001:00019f98       _n2fv_7                    1001af98 f   FFTW3f:n2fv_7.obj
 0001:00019e30       _n2fv_6                    1001ae30 f   FFTW3f:n2fv_6.obj
 0001:00019cd8       _n2fv_5                    1001acd8 f   FFTW3f:n2fv_5.obj
 0001:00019bf8       _n2fv_4                    1001abf8 f   FFTW3f:n2fv_4.obj
 0001:00019b20       _n2fv_3                    1001ab20 f   FFTW3f:n2fv_3.obj
 0001:00019a8c       _n2fv_2                    1001aa8c f   FFTW3f:n2fv_2.obj
 0001:00019558       _n1bv_16                   1001a558 f   FFTW3f:n1bv_16.obj
 0001:00018eec       _n1bv_15                   10019eec f   FFTW3f:n1bv_15.obj
 0001:000188ec       _n1bv_14                   100198ec f   FFTW3f:n1bv_14.obj
 0001:00018264       _n1bv_13                   10019264 f   FFTW3f:n1bv_13.obj
 0001:00017e98       _n1bv_12                   10018e98 f   FFTW3f:n1bv_12.obj
 0001:000178bc       _n1bv_11                   100188bc f   FFTW3f:n1bv_11.obj
 0001:00017524       _n1bv_10                   10018524 f   FFTW3f:n1bv_10.obj
 0001:00017160       _n1bv_9                    10018160 f   FFTW3f:n1bv_9.obj
 0001:00016f0c       _n1bv_8                    10017f0c f   FFTW3f:n1bv_8.obj
 0001:00016c48       _n1bv_7                    10017c48 f   FFTW3f:n1bv_7.obj
 0001:00016a78       _n1bv_6                    10017a78 f   FFTW3f:n1bv_6.obj
 0001:000168c4       _n1bv_5                    100178c4 f   FFTW3f:n1bv_5.obj
 0001:000167a4       _n1bv_4                    100177a4 f   FFTW3f:n1bv_4.obj
 0001:0001669c       _n1bv_3                    1001769c f   FFTW3f:n1bv_3.obj
 0001:000165ec       _n1bv_2                    100175ec f   FFTW3f:n1bv_2.obj
 0001:000160b8       _n1fv_16                   100170b8 f   FFTW3f:n1fv_16.obj
 0001:00015a38       _n1fv_15                   10016a38 f   FFTW3f:n1fv_15.obj
 0001:00015438       _n1fv_14                   10016438 f   FFTW3f:n1fv_14.obj
 0001:00014db4       _n1fv_13                   10015db4 f   FFTW3f:n1fv_13.obj
 0001:000149dc       _n1fv_12                   100159dc f   FFTW3f:n1fv_12.obj
 0001:00014408       _n1fv_11                   10015408 f   FFTW3f:n1fv_11.obj
 0001:00014070       _n1fv_10                   10015070 f   FFTW3f:n1fv_10.obj
 0001:00013cb0       _n1fv_9                    10014cb0 f   FFTW3f:n1fv_9.obj
 0001:00013a5c       _n1fv_8                    10014a5c f   FFTW3f:n1fv_8.obj
 0001:00013798       _n1fv_7                    10014798 f   FFTW3f:n1fv_7.obj
 0001:000135c4       _n1fv_6                    100145c4 f   FFTW3f:n1fv_6.obj
 0001:00013410       _n1fv_5                    10014410 f   FFTW3f:n1fv_5.obj
 0001:000132f0       _n1fv_4                    100142f0 f   FFTW3f:n1fv_4.obj
 0001:000131e8       _n1fv_3                    100141e8 f   FFTW3f:n1fv_3.obj
 0001:00013138       _n1fv_2                    10014138 f   FFTW3f:n1fv_2.obj
 0001:00012b88       _equal_instr               10013b88 f   FFTW3f:twiddle.obj
 0001:00012bd4       _ok_twid                   10013bd4 f   FFTW3f:twiddle.obj
 0001:00012c14       _lookup                    10013c14 f   FFTW3f:twiddle.obj
 0001:0013adcc       _twlen0                    1013bdcc f   FFTW3l:twiddle.obj
 0001:00012c7c       _compute                   10013c7c f   FFTW3f:twiddle.obj
 0001:00011b14       _Ntuple_transposable       10012b14 f   FFTW3f:transpose.obj
 0001:00139dd0       _gcd                       1013add0 f   FFTW3l:transpose.obj
 0001:00011d30       _rec_transpose_Ntuple      10012d30 f   FFTW3f:transpose.obj
 0001:00011f78       _rec_transpose_swap_Ntuple 10012f78 f   FFTW3f:transpose.obj
 0001:0001233c       _rec_transpose_sq_ip_Ntuple 1001333c f   FFTW3f:transpose.obj
 0001:00139bcc       _really_pickdim            1013abcc f   FFTW3l:pickdim.obj
 0001:00010460       _apply_re11                10011460 f   FFTW3f:reodft11e-r2hc-odd.obj
 0001:00010dc8       _apply_ro11                10011dc8 f   FFTW3f:reodft11e-r2hc-odd.obj
 0001:0009d504       _awake                     1009e504 f   FFTW3d:vrank-geq1-rdft2.obj
 0001:0000e298       _destroy                   1000f298 f   FFTW3f:rdft2-radix2.obj
 0001:000117bc       _print                     100127bc f   FFTW3f:reodft11e-r2hc-odd.obj
 0001:000117e4       _applicable0               100127e4 f   FFTW3f:reodft11e-r2hc-odd.obj
 0001:00011838       _applicable                10012838 f   FFTW3f:reodft11e-r2hc-odd.obj
 0001:00011868       _mkplan                    10012868 f   FFTW3f:reodft11e-r2hc-odd.obj
 0001:000119a4       _mksolver                  100129a4 f   FFTW3f:reodft11e-r2hc-odd.obj
 0001:0000f91c       _apply_re11                1001091c f   FFTW3f:reodft11e-radix2.obj
 0001:0000fd40       _apply_ro11                10010d40 f   FFTW3f:reodft11e-radix2.obj
 0001:00010160       _awake                     10011160 f   FFTW3f:reodft11e-radix2.obj
 0001:0000e298       _destroy                   1000f298 f   FFTW3f:rdft2-radix2.obj
 0001:000101c0       _print                     100111c0 f   FFTW3f:reodft11e-radix2.obj
 0001:000101e8       _applicable0               100111e8 f   FFTW3f:reodft11e-radix2.obj
 0001:00010234       _applicable                10011234 f   FFTW3f:reodft11e-radix2.obj
 0001:00010264       _mkplan                    10011264 f   FFTW3f:reodft11e-radix2.obj
 0001:0001043c       _mksolver                  1001143c f   FFTW3f:reodft11e-radix2.obj
 0001:0000ecd4       _apply_re01                1000fcd4 f   FFTW3f:reodft010e-r2hc.obj
 0001:0000eef0       _apply_ro01                1000fef0 f   FFTW3f:reodft010e-r2hc.obj
 0001:0000f14c       _apply_re10                1001014c f   FFTW3f:reodft010e-r2hc.obj
 0001:0000f380       _apply_ro10                10010380 f   FFTW3f:reodft010e-r2hc.obj
 0001:0000f5f4       _awake                     100105f4 f   FFTW3f:reodft010e-r2hc.obj
 0001:0000e298       _destroy                   1000f298 f   FFTW3f:rdft2-radix2.obj
 0001:0000f638       _print                     10010638 f   FFTW3f:reodft010e-r2hc.obj
 0001:0000f660       _applicable0               10010660 f   FFTW3f:reodft010e-r2hc.obj
 0001:0000f6ac       _applicable                100106ac f   FFTW3f:reodft010e-r2hc.obj
 0001:0000f6dc       _mkplan                    100106dc f   FFTW3f:reodft010e-r2hc.obj
 0001:0000f8f8       _mksolver                  100108f8 f   FFTW3f:reodft010e-r2hc.obj
 0001:0000e814       _apply                     1000f814 f   FFTW3f:rodft00e-r2hc-pad.obj
 0001:0000d5f4       _awake                     1000e5f4 f   FFTW3f:rank-geq2-rdft2.obj
 0001:0000e5a8       _destroy                   1000f5a8 f   FFTW3f:redft00e-r2hc-pad.obj
 0001:0000ea50       _print                     1000fa50 f   FFTW3f:rodft00e-r2hc-pad.obj
 0001:0000ea74       _applicable0               1000fa74 f   FFTW3f:rodft00e-r2hc-pad.obj
 0001:0000eab0       _applicable                1000fab0 f   FFTW3f:rodft00e-r2hc-pad.obj
 0001:0000eae0       _mkplan                    1000fae0 f   FFTW3f:rodft00e-r2hc-pad.obj
 0001:0000ecb0       _mksolver                  1000fcb0 f   FFTW3f:rodft00e-r2hc-pad.obj
 0001:0000e3b0       _apply                     1000f3b0 f   FFTW3f:redft00e-r2hc-pad.obj
 0001:0000d5f4       _awake                     1000e5f4 f   FFTW3f:rank-geq2-rdft2.obj
 0001:0000e5a8       _destroy                   1000f5a8 f   FFTW3f:redft00e-r2hc-pad.obj
 0001:001364e4       _print                     101374e4 f   FFTW3l:redft00e-r2hc-pad.obj
 0001:0000e5c4       _applicable0               1000f5c4 f   FFTW3f:redft00e-r2hc-pad.obj
 0001:0000e608       _applicable                1000f608 f   FFTW3f:redft00e-r2hc-pad.obj
 0001:0000e638       _mkplan                    1000f638 f   FFTW3f:redft00e-r2hc-pad.obj
 0001:0000e7f0       _mksolver                  1000f7f0 f   FFTW3f:redft00e-r2hc-pad.obj
 0001:0000d960       _applicable_f              1000e960 f   FFTW3f:rdft2-radix2.obj
 0001:0000d9a4       _applicable_f_dft          1000e9a4 f   FFTW3f:rdft2-radix2.obj
 0001:0000d9f0       _applicable_b              1000e9f0 f   FFTW3f:rdft2-radix2.obj
 0001:0000da4c       _applicable_b_dft          1000ea4c f   FFTW3f:rdft2-radix2.obj
 0001:0000da98       _k_f_dft                   1000ea98 f   FFTW3f:rdft2-radix2.obj
 0001:0000db9c       _apply_f_dft               1000eb9c f   FFTW3f:rdft2-radix2.obj
 0001:0000dc40       _mkcld_f_dft               1000ec40 f   FFTW3f:rdft2-radix2.obj
 0001:0000dc98       _k_f_rdft                  1000ec98 f   FFTW3f:rdft2-radix2.obj
 0001:0000dd78       _apply_f_rdft              1000ed78 f   FFTW3f:rdft2-radix2.obj
 0001:0000de10       _mkcld_f_rdft              1000ee10 f   FFTW3f:rdft2-radix2.obj
 0001:0000de7c       _k_b_dft                   1000ee7c f   FFTW3f:rdft2-radix2.obj
 0001:0000df64       _apply_b_dft               1000ef64 f   FFTW3f:rdft2-radix2.obj
 0001:0000e010       _mkcld_b_dft               1000f010 f   FFTW3f:rdft2-radix2.obj
 0001:0000e068       _k_b_rdft                  1000f068 f   FFTW3f:rdft2-radix2.obj
 0001:0000e140       _apply_b_rdft              1000f140 f   FFTW3f:rdft2-radix2.obj
 0001:0000e1e0       _mkcld_b_rdft              1000f1e0 f   FFTW3f:rdft2-radix2.obj
 0001:0000e24c       _awake                     1000f24c f   FFTW3f:rdft2-radix2.obj
 0001:0000e298       _destroy                   1000f298 f   FFTW3f:rdft2-radix2.obj
 0001:00136194       _print                     10137194 f   FFTW3l:rdft2-radix2.obj
 0001:0000e2a8       _mkplan                    1000f2a8 f   FFTW3f:rdft2-radix2.obj
 0001:0000e370       _mksolver                  1000f370 f   FFTW3f:rdft2-radix2.obj
 0001:0009ea30       _apply_r2hc                1009fa30 f   FFTW3d:rank-geq2-rdft2.obj
 0001:0013545c       _apply_hc2r                1013645c f   FFTW3l:rank-geq2-rdft2.obj
 0001:0000d5f4       _awake                     1000e5f4 f   FFTW3f:rank-geq2-rdft2.obj
 0001:0000d618       _destroy                   1000e618 f   FFTW3f:rank-geq2-rdft2.obj
 0001:0009ea7c       _print                     1009fa7c f   FFTW3d:rank-geq2-rdft2.obj
 0001:000052a8       _picksplit                 100062a8 f   FFTW3f:rank-geq2.obj
 0001:0000d634       _applicable0               1000e634 f   FFTW3f:rank-geq2-rdft2.obj
 0001:0000d6a4       _applicable                1000e6a4 f   FFTW3f:rank-geq2-rdft2.obj
 0001:0000d71c       _mkplan                    1000e71c f   FFTW3f:rank-geq2-rdft2.obj
 0001:0000d908       _mksolver                  1000e908 f   FFTW3f:rank-geq2-rdft2.obj
 0001:0000c660       _hc2c                      1000d660 f   FFTW3f:buffered2.obj
 0001:0000c974       _c2hc                      1000d974 f   FFTW3f:buffered2.obj
 0001:0000cc6c       _apply_r2hc                1000dc6c f   FFTW3f:buffered2.obj
 0001:0000ce18       _apply_hc2r                1000de18 f   FFTW3f:buffered2.obj
 0001:0000d5f4       _awake                     1000e5f4 f   FFTW3f:rank-geq2-rdft2.obj
 0001:0000e5a8       _destroy                   1000f5a8 f   FFTW3f:redft00e-r2hc-pad.obj
 0001:0000cfc4       _print                     1000dfc4 f   FFTW3f:buffered2.obj
 0001:0000d018       _min_nbuf                  1000e018 f   FFTW3f:buffered2.obj
 0001:0000d14c       _compute_nbuf              1000e14c f   FFTW3f:buffered2.obj
 0001:0000857c       _toobig                    1000957c f   FFTW3f:buffered.obj
 0001:0000d16c       _applicable0               1000e16c f   FFTW3f:buffered2.obj
 0001:0000d1c4       _applicable                1000e1c4 f   FFTW3f:buffered2.obj
 0001:0000d230       _mkplan                    1000e230 f   FFTW3f:buffered2.obj
 0001:0000d5c4       _mksolver                  1000e5c4 f   FFTW3f:buffered2.obj
 0001:0000c1dc       _applicable                1000d1dc f   FFTW3f:rank0-rdft2.obj
 0001:0000c244       _apply_r2hc                1000d244 f   FFTW3f:rank0-rdft2.obj
 0001:0000c3d4       _apply_r2hc_inplace        1000d3d4 f   FFTW3f:rank0-rdft2.obj
 0001:00134364       _apply_hc2r                10135364 f   FFTW3l:rank0-rdft2.obj
 0001:0009dc44       _awake                     1009ec44 f   FFTW3d:rank0-rdft2.obj
 0001:0000c504       _destroy                   1000d504 f   FFTW3f:rank0-rdft2.obj
 0001:0000c518       _print                     1000d518 f   FFTW3f:rank0-rdft2.obj
 0001:0000c544       _mkplan                    1000d544 f   FFTW3f:rank0-rdft2.obj
 0001:0000c63c       _mksolver                  1000d63c f   FFTW3f:rank0-rdft2.obj
 0001:0000c108       _apply                     1000d108 f   FFTW3f:nop2.obj
 0001:0000c10c       _applicable                1000d10c f   FFTW3f:nop2.obj
 0001:0009d888       _print                     1009e888 f   FFTW3d:nop2.obj
 0001:0000c17c       _mkplan                    1000d17c f   FFTW3f:nop2.obj
 0001:0000c1b8       _mksolver                  1000d1b8 f   FFTW3f:nop2.obj
 0001:0000bd4c       _apply                     1000cd4c f   FFTW3f:vrank-geq1-rdft2.obj
 0001:0009d504       _awake                     1009e504 f   FFTW3d:vrank-geq1-rdft2.obj
 0001:0000e298       _destroy                   1000f298 f   FFTW3f:rdft2-radix2.obj
 0001:0000bde8       _print                     1000cde8 f   FFTW3f:vrank-geq1-rdft2.obj
 0001:0000be08       _pickdim                   1000ce08 f   FFTW3f:vrank-geq1-rdft2.obj
 0001:0000be2c       _applicable0               1000ce2c f   FFTW3f:vrank-geq1-rdft2.obj
 0001:0000bea4       _applicable                1000cea4 f   FFTW3f:vrank-geq1-rdft2.obj
 0001:0000bf78       _mkplan                    1000cf78 f   FFTW3f:vrank-geq1-rdft2.obj
 0001:0000c0b0       _mksolver                  1000d0b0 f   FFTW3f:vrank-geq1-rdft2.obj
 0001:0000b280       _apply                     1000c280 f   FFTW3f:dht-rader.obj
 0001:0000b8c8       _mkomega                   1000c8c8 f   FFTW3f:dht-rader.obj
 0001:0000b9c8       _free_omega                1000c9c8 f   FFTW3f:dht-rader.obj
 0001:0000b9dc       _awake                     1000c9dc f   FFTW3f:dht-rader.obj
 0001:0000ba34       _destroy                   1000ca34 f   FFTW3f:dht-rader.obj
 0001:0009d1ac       _print                     1009e1ac f   FFTW3d:dht-rader.obj
 0001:0000ba58       _applicable0               1000ca58 f   FFTW3f:dht-rader.obj
 0001:0000bab0       _applicable                1000cab0 f   FFTW3f:dht-rader.obj
 0001:0000badc       _mkplan                    1000cadc f   FFTW3f:dht-rader.obj
 0001:0000bd28       _mksolver                  1000cd28 f   FFTW3f:dht-rader.obj
 0001:0000b0bc       _apply                     1000c0bc f   FFTW3f:dht-r2hc.obj
 0001:0009d504       _awake                     1009e504 f   FFTW3d:vrank-geq1-rdft2.obj
 0001:0000e298       _destroy                   1000f298 f   FFTW3f:rdft2-radix2.obj
 0001:0009c840       _print                     1009d840 f   FFTW3d:dht-r2hc.obj
 0001:0000b128       _applicable0               1000c128 f   FFTW3f:dht-r2hc.obj
 0001:0000b170       _applicable                1000c170 f   FFTW3f:dht-r2hc.obj
 0001:0000b19c       _mkplan                    1000c19c f   FFTW3f:dht-r2hc.obj
 0001:0000b25c       _mksolver                  1000c25c f   FFTW3f:dht-r2hc.obj
 0001:0000aca4       _apply_r2hc                1000bca4 f   FFTW3f:rdft-dht.obj
 0001:0000ad18       _apply_hc2r                1000bd18 f   FFTW3f:rdft-dht.obj
 0001:0000ad84       _apply_hc2r_save           1000bd84 f   FFTW3f:rdft-dht.obj
 0001:0009d504       _awake                     1009e504 f   FFTW3d:vrank-geq1-rdft2.obj
 0001:0000e298       _destroy                   1000f298 f   FFTW3f:rdft2-radix2.obj
 0001:0000ae6c       _print                     1000be6c f   FFTW3f:rdft-dht.obj
 0001:0000aea0       _applicable0               1000bea0 f   FFTW3f:rdft-dht.obj
 0001:0000aee8       _applicable                1000bee8 f   FFTW3f:rdft-dht.obj
 0001:0000af18       _mkplan                    1000bf18 f   FFTW3f:rdft-dht.obj
 0001:0000b098       _mksolver                  1000c098 f   FFTW3f:rdft-dht.obj
 0001:0000a9ec       _apply                     1000b9ec f   FFTW3f:dft-r2hc.obj
 0001:0009d504       _awake                     1009e504 f   FFTW3d:vrank-geq1-rdft2.obj
 0001:0000e298       _destroy                   1000f298 f   FFTW3f:rdft2-radix2.obj
 0001:00132a88       _print                     10133a88 f   FFTW3l:dft-r2hc.obj
 0001:0000aa90       _applicable0               1000ba90 f   FFTW3f:dft-r2hc.obj
 0001:0000aac4       _split                     1000bac4 f   FFTW3f:dft-r2hc.obj
 0001:0000ab00       _applicable                1000bb00 f   FFTW3f:dft-r2hc.obj
 0001:0000ab94       _mkplan                    1000bb94 f   FFTW3f:dft-r2hc.obj
 0001:0000ac80       _mksolver                  1000bc80 f   FFTW3f:dft-r2hc.obj
 0001:0009bf58       _apply                     1009cf58 f   FFTW3d:rank-geq2.obj
 0001:0000d5f4       _awake                     1000e5f4 f   FFTW3f:rank-geq2-rdft2.obj
 0001:0000e5a8       _destroy                   1000f5a8 f   FFTW3f:redft00e-r2hc-pad.obj
 0001:0000a768       _print                     1000b768 f   FFTW3f:rank-geq2.obj
 0001:000052a8       _picksplit                 100062a8 f   FFTW3f:rank-geq2.obj
 0001:0000a788       _applicable0               1000b788 f   FFTW3f:rank-geq2.obj
 0001:0000a7cc       _applicable                1000b7cc f   FFTW3f:rank-geq2.obj
 0001:0000a83c       _mkplan                    1000b83c f   FFTW3f:rank-geq2.obj
 0001:0000a994       _mksolver                  1000b994 f   FFTW3f:rank-geq2.obj
 0001:00009b6c       _apply_dit                 1000ab6c f   FFTW3f:generic.obj
 0001:00009fe0       _apply_dif                 1000afe0 f   FFTW3f:generic.obj
 0001:0000a448       _awake                     1000b448 f   FFTW3f:generic.obj
 0001:0000e298       _destroy                   1000f298 f   FFTW3f:rdft2-radix2.obj
 0001:00132464       _print                     10133464 f   FFTW3l:generic.obj
 0001:0000a480       _applicable0               1000b480 f   FFTW3f:generic.obj
 0001:0000a4d0       _applicable                1000b4d0 f   FFTW3f:generic.obj
 0001:0000a524       _mkplan                    1000b524 f   FFTW3f:generic.obj
 0001:0000a728       _mksolver                  1000b728 f   FFTW3f:generic.obj
 0001:000089e8       _apply_aux                 100099e8 f   FFTW3f:rader-hc2hc.obj
 0001:00008a84       _apply_dit                 10009a84 f   FFTW3f:rader-hc2hc.obj
 0001:00008f4c       _apply_dif                 10009f4c f   FFTW3f:rader-hc2hc.obj
 0001:000094b4       _mktwiddle                 1000a4b4 f   FFTW3f:rader-hc2hc.obj
 0001:00009610       _free_twiddle              1000a610 f   FFTW3f:rader-hc2hc.obj
 0001:00009624       _awake                     1000a624 f   FFTW3f:rader-hc2hc.obj
 0001:000096ac       _destroy                   1000a6ac f   FFTW3f:rader-hc2hc.obj
 0001:00131570       _print                     10132570 f   FFTW3l:rader-hc2hc.obj
 0001:000096d0       _applicable0               1000a6d0 f   FFTW3f:rader-hc2hc.obj
 0001:0000972c       _applicable                1000a72c f   FFTW3f:rader-hc2hc.obj
 0001:0000975c       _mkP                       1000a75c f   FFTW3f:rader-hc2hc.obj
 0001:000098c0       _mkplan_dit                1000a8c0 f   FFTW3f:rader-hc2hc.obj
 0001:000099ec       _mkplan_dif                1000a9ec f   FFTW3f:rader-hc2hc.obj
 0001:00009b14       _mksolver_dit              1000ab14 f   FFTW3f:rader-hc2hc.obj
 0001:00009b2c       _mksolver_dif              1000ab2c f   FFTW3f:rader-hc2hc.obj
 0001:000084c8       _apply                     100094c8 f   FFTW3f:buffered.obj
 0001:0013028c       _awake                     1013128c f   FFTW3l:buffered.obj
 0001:0000639c       _destroy                   1000739c f   FFTW3f:buffered.obj
 0001:00099ad4       _print                     1009aad4 f   FFTW3d:buffered.obj
 0001:0000d14c       _compute_nbuf              1000e14c f   FFTW3f:buffered2.obj
 0001:0000857c       _toobig                    1000957c f   FFTW3f:buffered.obj
 0001:00008598       _applicable0               10009598 f   FFTW3f:buffered.obj
 0001:00008654       _applicable                10009654 f   FFTW3f:buffered.obj
 0001:000086c0       _mkplan                    100096c0 f   FFTW3f:buffered.obj
 0001:000089b8       _mksolver                  100099b8 f   FFTW3f:buffered.obj
 0001:0000c108       _apply                     1000d108 f   FFTW3f:nop2.obj
 0001:0000840c       _applicable                1000940c f   FFTW3f:nop.obj
 0001:000999ac       _print                     1009a9ac f   FFTW3d:nop.obj
 0001:00008468       _mkplan                    10009468 f   FFTW3f:nop.obj
 0001:000084a4       _mksolver                  100094a4 f   FFTW3f:nop.obj
 0001:000080cc       _apply                     100090cc f   FFTW3f:vrank-geq1.obj
 0001:0009d504       _awake                     1009e504 f   FFTW3d:vrank-geq1-rdft2.obj
 0001:0000e298       _destroy                   1000f298 f   FFTW3f:rdft2-radix2.obj
 0001:00008144       _print                     10009144 f   FFTW3f:vrank-geq1.obj
 0001:0000be08       _pickdim                   1000ce08 f   FFTW3f:vrank-geq1-rdft2.obj
 0001:00008164       _applicable0               10009164 f   FFTW3f:vrank-geq1.obj
 0001:000081bc       _applicable                100091bc f   FFTW3f:vrank-geq1.obj
 0001:000082b0       _mkplan                    100092b0 f   FFTW3f:vrank-geq1.obj
 0001:000083b4       _mksolver                  100093b4 f   FFTW3f:vrank-geq1.obj
 0001:00007e78       _applicable                10008e78 f   FFTW3f:rank0.obj
 0001:00007ebc       _apply_1                   10008ebc f   FFTW3f:rank0.obj
 0001:00096648       _applicable_1              10097648 f   FFTW3d:rank0.obj
 0001:00007ecc       _apply_vec                 10008ecc f   FFTW3f:rank0.obj
 0001:000995b0       _applicable_vec            1009a5b0 f   FFTW3d:rank0.obj
 0001:00007fdc       _apply_io1                 10008fdc f   FFTW3f:rank0.obj
 0001:00007ff4       _applicable_io1            10008ff4 f   FFTW3f:rank0.obj
 0001:000051b0       _print                     100061b0 f   FFTW3f:rank0.obj
 0001:00008028       _mkplan                    10009028 f   FFTW3f:rank0.obj
 0001:0000808c       _mksolver                  1000908c f   FFTW3f:rank0.obj
 0001:0009bf58       _apply_before              1009cf58 f   FFTW3d:rank-geq2.obj
 0001:00007bcc       _mkcld_before              10008bcc f   FFTW3f:indirect.obj
 0001:0012fa38       _apply_after               10130a38 f   FFTW3l:indirect.obj
 0001:00007c00       _mkcld_after               10008c00 f   FFTW3f:indirect.obj
 0001:0000e5a8       _destroy                   1000f5a8 f   FFTW3f:redft00e-r2hc-pad.obj
 0001:0000d5f4       _awake                     1000e5f4 f   FFTW3f:rank-geq2-rdft2.obj
 0001:00004cc8       _print                     10005cc8 f   FFTW3f:indirect.obj
 0001:00007c34       _applicable0               10008c34 f   FFTW3f:indirect.obj
 0001:00007d24       _applicable                10008d24 f   FFTW3f:indirect.obj
 0001:00007d60       _mkplan                    10008d60 f   FFTW3f:indirect.obj
 0001:00007e38       _mksolver                  10008e38 f   FFTW3f:indirect.obj
 0001:0000c108       _apply                     1000d108 f   FFTW3f:nop2.obj
 0001:00007b10       _applicable                10008b10 f   FFTW3f:nop.obj
 0001:0009911c       _print                     1009a11c f   FFTW3d:nop.obj
 0001:00007b6c       _mkplan                    10008b6c f   FFTW3f:nop.obj
 0001:00007ba8       _mksolver                  10008ba8 f   FFTW3f:nop.obj
 0001:00006d94       _apply_aux                 10007d94 f   FFTW3f:rader.obj
 0001:00006ff8       _apply                     10007ff8 f   FFTW3f:rader.obj
 0001:000071c8       _apply_dit                 100081c8 f   FFTW3f:rader.obj
 0001:00007350       _mktwiddle                 10008350 f   FFTW3f:rader.obj
 0001:000074a0       _free_twiddle              100084a0 f   FFTW3f:rader.obj
 0001:000074b4       _awake                     100084b4 f   FFTW3f:rader.obj
 0001:00007504       _awake_dit                 10008504 f   FFTW3f:rader.obj
 0001:0000ba34       _destroy                   1000ca34 f   FFTW3f:dht-rader.obj
 0001:00007554       _destroy_dit               10008554 f   FFTW3f:rader.obj
 0001:0000756c       _print_aux                 1000856c f   FFTW3f:rader.obj
 0001:000075c8       _print                     100085c8 f   FFTW3f:rader.obj
 0001:000075e8       _print_dit                 100085e8 f   FFTW3f:rader.obj
 0001:00007610       _applicable0               10008610 f   FFTW3f:rader.obj
 0001:00007654       _applicable0_dit           10008654 f   FFTW3f:rader.obj
 0001:00007690       _applicable                10008690 f   FFTW3f:rader.obj
 0001:000076c0       _applicable_dit            100086c0 f   FFTW3f:rader.obj
 0001:000076f0       _mkP                       100086f0 f   FFTW3f:rader.obj
 0001:00007908       _mkplan                    10008908 f   FFTW3f:rader.obj
 0001:00007984       _mkplan_dit                10008984 f   FFTW3f:rader.obj
 0001:00007ac8       _mksolver                  10008ac8 f   FFTW3f:rader.obj
 0001:00007ad8       _mksolver_dit              10008ad8 f   FFTW3f:rader.obj
 0001:000068f4       _apply                     100078f4 f   FFTW3f:generic.obj
 0001:00006b80       _awake                     10007b80 f   FFTW3f:generic.obj
 0001:0000e298       _destroy                   1000f298 f   FFTW3f:rdft2-radix2.obj
 0001:0012ebac       _print                     1012fbac f   FFTW3l:generic.obj
 0001:00006bb8       _applicable0               10007bb8 f   FFTW3f:generic.obj
 0001:00006bf4       _applicable                10007bf4 f   FFTW3f:generic.obj
 0001:00006c40       _mkplan                    10007c40 f   FFTW3f:generic.obj
 0001:00006d70       _mksolver                  10007d70 f   FFTW3f:generic.obj
 0001:0000626c       _apply                     1000726c f   FFTW3f:buffered.obj
 0001:0013028c       _awake                     1013128c f   FFTW3l:buffered.obj
 0001:0000639c       _destroy                   1000739c f   FFTW3f:buffered.obj
 0001:0012e3a8       _print                     1012f3a8 f   FFTW3l:buffered.obj
 0001:0000d14c       _compute_nbuf              1000e14c f   FFTW3f:buffered2.obj
 0001:0000857c       _toobig                    1000957c f   FFTW3f:buffered.obj
 0001:000063c0       _applicable0               100073c0 f   FFTW3f:buffered.obj
 0001:0000647c       _applicable                1000747c f   FFTW3f:buffered.obj
 0001:000064e8       _mkplan                    100074e8 f   FFTW3f:buffered.obj
 0001:000068c4       _mksolver                  100078c4 f   FFTW3f:buffered.obj
 0001:00005c44       _t                         10006c44 f   FFTW3f:vrank3-transpose.obj
 0001:00005d78       _apply                     10006d78 f   FFTW3f:vrank3-transpose.obj
 0001:00005d9c       _apply_general             10006d9c f   FFTW3f:vrank3-transpose.obj
 0001:00005dfc       _apply_slow                10006dfc f   FFTW3f:vrank3-transpose.obj
 0001:00005e90       _pickdim                   10006e90 f   FFTW3f:vrank3-transpose.obj
 0001:00005f94       _applicable0               10006f94 f   FFTW3f:vrank3-transpose.obj
 0001:00005ff0       _applicable                10006ff0 f   FFTW3f:vrank3-transpose.obj
 0001:0012e060       _print                     1012f060 f   FFTW3l:vrank3-transpose.obj
 0001:000060a0       _mkplan                    100070a0 f   FFTW3f:vrank3-transpose.obj
 0001:00006248       _mksolver                  10007248 f   FFTW3f:vrank3-transpose.obj
 0001:000058bc       _t                         100068bc f   FFTW3f:vrank2-transpose.obj
 0001:0000598c       _apply                     1000698c f   FFTW3f:vrank2-transpose.obj
 0001:000059ac       _apply_general             100069ac f   FFTW3f:vrank2-transpose.obj
 0001:000059fc       _apply_slow                100069fc f   FFTW3f:vrank2-transpose.obj
 0001:00005a68       _applicable                10006a68 f   FFTW3f:vrank2-transpose.obj
 0001:00005af0       _print                     10006af0 f   FFTW3f:vrank2-transpose.obj
 0001:00005b0c       _mkplan                    10006b0c f   FFTW3f:vrank2-transpose.obj
 0001:00005c20       _mksolver                  10006c20 f   FFTW3f:vrank2-transpose.obj
 0001:0000554c       _apply                     1000654c f   FFTW3f:vrank-geq1.obj
 0001:0009d504       _awake                     1009e504 f   FFTW3d:vrank-geq1-rdft2.obj
 0001:0000e298       _destroy                   1000f298 f   FFTW3f:rdft2-radix2.obj
 0001:0012d750       _print                     1012e750 f   FFTW3l:vrank-geq1.obj
 0001:0000be08       _pickdim                   1000ce08 f   FFTW3f:vrank-geq1-rdft2.obj
 0001:00005610       _applicable0               10006610 f   FFTW3f:vrank-geq1.obj
 0001:00005668       _applicable                10006668 f   FFTW3f:vrank-geq1.obj
 0001:00005738       _mkplan                    10006738 f   FFTW3f:vrank-geq1.obj
 0001:00005864       _mksolver                  10006864 f   FFTW3f:vrank-geq1.obj
 0001:00005274       _apply                     10006274 f   FFTW3f:rank-geq2.obj
 0001:0000d5f4       _awake                     1000e5f4 f   FFTW3f:rank-geq2-rdft2.obj
 0001:0000e5a8       _destroy                   1000f5a8 f   FFTW3f:redft00e-r2hc-pad.obj
 0001:0012d3b4       _print                     1012e3b4 f   FFTW3l:rank-geq2.obj
 0001:000052a8       _picksplit                 100062a8 f   FFTW3f:rank-geq2.obj
 0001:000052e8       _applicable0               100062e8 f   FFTW3f:rank-geq2.obj
 0001:0000532c       _applicable                1000632c f   FFTW3f:rank-geq2.obj
 0001:0000539c       _mkplan                    1000639c f   FFTW3f:rank-geq2.obj
 0001:000054f4       _mksolver                  100064f4 f   FFTW3f:rank-geq2.obj
 0001:00004f34       _applicable                10005f34 f   FFTW3f:rank0.obj
 0001:00004f78       _apply_1                   10005f78 f   FFTW3f:rank0.obj
 0001:00096648       _applicable_1              10097648 f   FFTW3d:rank0.obj
 0001:00004f94       _apply_vec                 10005f94 f   FFTW3f:rank0.obj
 0001:0012d1f4       _applicable_vec            1012e1f4 f   FFTW3l:rank0.obj
 0001:00005094       _apply_io1                 10006094 f   FFTW3f:rank0.obj
 0001:000050bc       _applicable_io1            100060bc f   FFTW3f:rank0.obj
 0001:000050f0       _apply_io2r                100060f0 f   FFTW3f:rank0.obj
 0001:00005108       _applicable_io2r           10006108 f   FFTW3f:rank0.obj
 0001:00005150       _apply_io2i                10006150 f   FFTW3f:rank0.obj
 0001:00005168       _applicable_io2i           10006168 f   FFTW3f:rank0.obj
 0001:000051b0       _print                     100061b0 f   FFTW3f:rank0.obj
 0001:000051d0       _mkplan                    100061d0 f   FFTW3f:rank0.obj
 0001:00005234       _mksolver                  10006234 f   FFTW3f:rank0.obj
 0001:00005274       _apply_before              10006274 f   FFTW3f:rank-geq2.obj
 0001:00004c60       _mkcld_before              10005c60 f   FFTW3f:indirect.obj
 0001:0012cf00       _apply_after               1012df00 f   FFTW3l:indirect.obj
 0001:00004c94       _mkcld_after               10005c94 f   FFTW3f:indirect.obj
 0001:0000e5a8       _destroy                   1000f5a8 f   FFTW3f:redft00e-r2hc-pad.obj
 0001:0000d5f4       _awake                     1000e5f4 f   FFTW3f:rank-geq2-rdft2.obj
 0001:00004cc8       _print                     10005cc8 f   FFTW3f:indirect.obj
 0001:00004cec       _applicable0               10005cec f   FFTW3f:indirect.obj
 0001:00004ddc       _applicable                10005ddc f   FFTW3f:indirect.obj
 0001:00004e18       _mkplan                    10005e18 f   FFTW3f:indirect.obj
 0001:00004ef4       _mksolver                  10005ef4 f   FFTW3f:indirect.obj
 0001:00004a80       _measure                   10005a80 f   FFTW3f:timer.obj
 0001:00004bc4       _getticks                  10005bc4 f   FFTW3f:timer.obj
 0001:00095fe0       _get_prime_factors         10096fe0 f   FFTW3d:primes.obj
 0001:0000457c       _doblock                   1000557c f   FFTW3f:md5.obj
 0001:0009591c       _strides_contig            1009691c f   FFTW3d:tensor7.obj
 0001:00004074       _recur                     10005074 f   FFTW3f:zero.obj
 0001:0012c0c0       _dimcpy                    1012d0c0 f   FFTW3l:tensor5.obj
 0001:00003b0c       _rowmajor_kosherp          10004b0c f   FFTW3f:mktensor-rowmajor.obj
 0001:00003800       _iodims_kosherp            10004800 f   FFTW3f:mktensor-iodims.obj
 0001:00094bc8       _mygetc                    10095bc8 f   FFTW3d:scan.obj
 0001:0012b830       _myungetc                  1012c830 f   FFTW3l:scan.obj
 0001:00003330       _eat_blanks                10004330 f   FFTW3f:scan.obj
 0001:00003364       _mygets                    10004364 f   FFTW3f:scan.obj
 0001:000033e4       _getlong                   100043e4 f   FFTW3f:scan.obj
 0001:000034a0       _vscan                     100044a0 f   FFTW3f:scan.obj
 0001:0000361c       _scan                      1000461c f   FFTW3f:scan.obj
 0001:0012b5f0       _map_flags                 1012c5f0 f   FFTW3l:mapflags.obj
 0001:0012a820       _addmod                    1012b820 f   FFTW3l:planner.obj
 0001:0000243c       _sgrow                     1000343c f   FFTW3f:planner.obj
 0001:00002558       _register_solver           10003558 f   FFTW3f:planner.obj
 0001:0012a9b0       _slookup                   1012b9b0 f   FFTW3l:planner.obj
 0001:00093eac       _h1                        10094eac f   FFTW3d:planner.obj
 0001:0012aa64       _h2                        1012ba64 f   FFTW3l:planner.obj
 0001:000025b8       _md5hash                   100035b8 f   FFTW3f:planner.obj
 0001:000025f8       _md5eq                     100035f8 f   FFTW3f:planner.obj
 0001:0012aac0       _sigcpy                    1012bac0 f   FFTW3l:planner.obj
 0001:00002628       _hlookup                   10003628 f   FFTW3f:planner.obj
 0001:000026ec       _hinsert0                  100036ec f   FFTW3f:planner.obj
 0001:00002770       _rehash                    10003770 f   FFTW3f:planner.obj
 0001:00094144       _minsz                     10095144 f   FFTW3d:planner.obj
 0001:0000286c       _nextsz                    1000386c f   FFTW3f:planner.obj
 0001:00002880       _hgrow                     10003880 f   FFTW3f:planner.obj
 0001:000028a8       _hshrink                   100038a8 f   FFTW3f:planner.obj
 0001:0012ad7c       _merge_flags               1012bd7c f   FFTW3l:planner.obj
 0001:000028c4       _hinsert                   100038c4 f   FFTW3f:planner.obj
 0001:00002950       _hcurse_subsumed           10003950 f   FFTW3f:planner.obj
 0001:0012af3c       _invoke_hook               1012bf3c f   FFTW3l:planner.obj
 0001:00002a64       _evaluate_plan             10003a64 f   FFTW3f:planner.obj
 0001:00002af4       _invoke_solver             10003af4 f   FFTW3f:planner.obj
 0001:00002b30       _search                    10003b30 f   FFTW3f:planner.obj
 0001:00002c90       _mkplan                    10003c90 f   FFTW3f:planner.obj
 0001:00002d94       _forget                    10003d94 f   FFTW3f:planner.obj
 0001:00002e20       _htab_destroy              10003e20 f   FFTW3f:planner.obj
 0001:00002e44       _exprt                     10003e44 f   FFTW3f:planner.obj
 0001:00002ef4       _imprt                     10003ef4 f   FFTW3f:planner.obj
 0001:000018e4       _destroy                   100028e4 f   FFTW3f:problem.obj
 0001:00001df0       _kind_hash                 10002df0 f   FFTW3f:problem.obj
 0001:00001e38       _hash                      10002e38 f   FFTW3f:problem.obj
 0001:00001ea8       _recur                     10002ea8 f   FFTW3f:problem.obj
 0001:00002034       _print                     10003034 f   FFTW3f:problem.obj
 0001:000020a0       _zero                      100030a0 f   FFTW3f:problem.obj
 0001:0012a4d0       _nontrivial                1012b4d0 f   FFTW3l:problem.obj
 0001:000018e4       _destroy                   100028e4 f   FFTW3f:problem.obj
 0001:00001b10       _hash                      10002b10 f   FFTW3f:problem2.obj
 0001:00001bb0       _print                     10002bb0 f   FFTW3f:problem2.obj
 0001:00001bec       _zero                      10002bec f   FFTW3f:problem2.obj
 0001:000018e4       _destroy                   100028e4 f   FFTW3f:problem.obj
 0001:00001900       _hash                      10002900 f   FFTW3f:problem.obj
 0001:000019a0       _print                     100029a0 f   FFTW3f:problem.obj
 0001:000019f8       _zero                      100029f8 f   FFTW3f:problem.obj
 0001:00001508       _myputs                    10002508 f   FFTW3f:print.obj
 0001:00001548       _vprint                    10002548 f   FFTW3f:print.obj
 0001:0000187c       _print                     1000287c f   FFTW3f:print.obj
 0001:00128e14       _myflush                   10129e14 f   FFTW3l:mkprinter-file.obj
 0001:000006a0       _myputchr                  100016a0 f   FFTW3f:mkprinter-file.obj
 0001:000006d4       _mycleanup                 100016d4 f   FFTW3f:mkprinter-file.obj
 0001:0000063c       _getchr_str                1000163c f   FFTW3f:import-wisdom-from-string.obj
 0001:0000065c       _mkscanner_str             1000165c f   FFTW3f:import-wisdom-from-string.obj
 0001:00091f10       _getchr_file               10092f10 f   FFTW3d:import-wisdom-from-file.obj
 0001:000005e4       _mkscanner_file            100015e4 f   FFTW3f:import-wisdom-from-file.obj
 0001:00000598       _getchr_generic            10001598 f   FFTW3f:import-wisdom.obj
 0001:00091e40       _our_malloc16              10092e40 f   FFTW3d:alloc.obj
 0001:00000514       _our_free16                10001514 f   FFTW3f:alloc.obj
 0001:00000428       _putchr_cnt                10001428 f   FFTW3f:export-wisdom-to-string.obj
 0001:00000434       _mkprinter_cnt             10001434 f   FFTW3f:export-wisdom-to-string.obj
 0001:00128bd8       _putchr_str                10129bd8 f   FFTW3l:export-wisdom-to-string.obj
 0001:00000454       _mkprinter_str             10001454 f   FFTW3f:export-wisdom-to-string.obj
 0001:00128b40       _putchr_generic            10129b40 f   FFTW3l:export-wisdom.obj
 0001:00128464       _destroy                   10129464 f   FFTW3d:hc2hc.obj
 0001:00128498       _awake                     10129498 f   FFTW3d:hc2hc.obj
 0001:00128520       _print                     10129520 f   FFTW3d:hc2hc.obj
 0001:00128210       _destroy                   10129210 f   FFTW3d:ct.obj
 0001:00128234       _awake                     10129234 f   FFTW3d:ct.obj
 0001:00128270       _print                     10129270 f   FFTW3d:ct.obj
 0001:0019bf34       _apply                     1019cf34 f   FFTW3l:hc2hc-dit.obj
 0001:00127e84       _applicable0               10128e84 f   FFTW3d:hc2hc-dit.obj
 0001:00127fac       _applicable                10128fac f   FFTW3d:hc2hc-dit.obj
 0001:00128028       _finish                    10129028 f   FFTW3d:hc2hc-dit.obj
 0001:001280ac       _mkplan                    101290ac f   FFTW3d:hc2hc-dit.obj
 0001:001275ec       _cpy                       101285ec f   FFTW3d:hc2hc-buf.obj
 0001:001277e0       _doit                      101287e0 f   FFTW3d:hc2hc-buf.obj
 0001:0012786c       _apply_dit                 1012886c f   FFTW3d:hc2hc-buf.obj
 0001:00127a38       _apply_dif                 10128a38 f   FFTW3d:hc2hc-buf.obj
 0001:00127c08       _applicable0               10128c08 f   FFTW3d:hc2hc-buf.obj
 0001:00127cf0       _applicable                10128cf0 f   FFTW3d:hc2hc-buf.obj
 0001:00127d5c       _finish                    10128d5c f   FFTW3d:hc2hc-buf.obj
 0001:00127e14       _mkplan_ditbuf             10128e14 f   FFTW3d:hc2hc-buf.obj
 0001:00127e4c       _mkplan_difbuf             10128e4c f   FFTW3d:hc2hc-buf.obj
 0001:00127278       _apply                     10128278 f   FFTW3d:hc2hc-dif.obj
 0001:0012738c       _applicable0               1012838c f   FFTW3d:hc2hc-dif.obj
 0001:001274b4       _applicable                101284b4 f   FFTW3d:hc2hc-dif.obj
 0001:00127530       _finish                    10128530 f   FFTW3d:hc2hc-dif.obj
 0001:001275b4       _mkplan                    101285b4 f   FFTW3d:hc2hc-dif.obj
 0001:00126e18       _apply_r2hc                10127e18 f   FFTW3d:direct2.obj
 0001:00126f04       _apply_hc2r                10127f04 f   FFTW3d:direct2.obj
 0001:00126f2c       _destroy                   10127f2c f   FFTW3d:direct2.obj
 0001:00126f48       _print                     10127f48 f   FFTW3d:direct2.obj
 0001:00126f78       _applicable                10127f78 f   FFTW3d:direct2.obj
 0001:001270b0       _mkplan                    101280b0 f   FFTW3d:direct2.obj
 0001:0019add0       _apply_r2hc                1019bdd0 f   FFTW3l:direct.obj
 0001:001268ec       _apply_hc2r                101278ec f   FFTW3d:direct.obj
 0001:0019ae04       _apply_r2r                 1019be04 f   FFTW3l:direct.obj
 0001:00126920       _destroy                   10127920 f   FFTW3d:direct.obj
 0001:00126950       _print                     10127950 f   FFTW3d:direct.obj
 0001:00126980       _ioffset                   10127980 f   FFTW3d:direct.obj
 0001:0012699c       _applicable                1012799c f   FFTW3d:direct.obj
 0001:00126b70       _mkplan                    10127b70 f   FFTW3d:direct.obj
 0001:0019a320       _apply                     1019b320 f   FFTW3l:ct-ditf.obj
 0001:00126758       _applicable                10127758 f   FFTW3d:ct-ditf.obj
 0001:00126800       _finish                    10127800 f   FFTW3d:ct-ditf.obj
 0001:00126858       _mkcld                     10127858 f   FFTW3d:ct-ditf.obj
 0001:001268b0       _mkplan                    101278b0 f   FFTW3d:ct-ditf.obj
 0001:0019a900       _cpy                       1019b900 f   FFTW3l:ct-ditbuf.obj
 0001:001263d8       _doit                      101273d8 f   FFTW3d:ct-ditbuf.obj
 0001:0012645c       _apply                     1012745c f   FFTW3d:ct-ditbuf.obj
 0001:001265a8       _applicable0               101275a8 f   FFTW3d:ct-ditbuf.obj
 0001:00126640       _applicable                10127640 f   FFTW3d:ct-ditbuf.obj
 0001:001266ac       _finish                    101276ac f   FFTW3d:ct-ditbuf.obj
 0001:0012671c       _mkplan                    1012771c f   FFTW3d:ct-ditbuf.obj
 0001:0019a688       _apply                     1019b688 f   FFTW3l:ct-dit.obj
 0001:001261f4       _applicable0               101271f4 f   FFTW3d:ct-dit.obj
 0001:001262d4       _applicable                101272d4 f   FFTW3d:ct-dit.obj
 0001:00126350       _finish                    10127350 f   FFTW3d:ct-dit.obj
 0001:0012639c       _mkplan                    1012739c f   FFTW3d:ct-dit.obj
 0001:0008ef58       _apply                     1008ff58 f   FFTW3f:direct.obj
 0001:00126f2c       _destroy                   10127f2c f   FFTW3d:direct2.obj
 0001:0019a4d8       _print                     1019b4d8 f   FFTW3l:direct.obj
 0001:00126054       _applicable                10127054 f   FFTW3d:direct.obj
 0001:0012612c       _mkplan                    1012712c f   FFTW3d:direct.obj
 0001:00125f48       _sse2_works                10126f48 f   FFTW3d:sse2.obj
 0001:00126040       _sighandler                10127040 f   FFTW3d:sse2.obj
 0001:0019a258       _okp                       1019b258 f   FFTW3l:r2hc.obj
 0001:0008ed5c       _okp                       1008fd5c f   FFTW3f:hfb.obj
 0001:00125e08       _okp                       10126e08 f   FFTW3d:hc2r.obj
 0001:0019a180       _okp                       1019b180 f   FFTW3l:r2r.obj
 0001:00125da8       _okp                       10126da8 f   FFTW3d:n.obj
 0001:0008ed5c       _okp                       1008fd5c f   FFTW3f:hfb.obj
 0001:00125d04       _okp                       10126d04 f   FFTW3d:q1b.obj
 0001:00125c44       _okp                       10126c44 f   FFTW3d:q1f.obj
 0001:00125bc4       _okp                       10126bc4 f   FFTW3d:t1b.obj
 0001:00125b00       _okp                       10126b00 f   FFTW3d:t1f.obj
 0001:00125a2c       _okp                       10126a2c f   FFTW3d:n2b.obj
 0001:00125958       _okp                       10126958 f   FFTW3d:n2f.obj
 0001:00125870       _okp                       10126870 f   FFTW3d:n1b.obj
 0001:0012576c       _okp                       1012676c f   FFTW3d:n1f.obj
 0001:00123d98       _mr2hcII_64_0              10124d98 f   FFTW3d:mr2hcII_64.obj
 0001:00125624       _mr2hcII_64                10126624 f   FFTW3d:mr2hcII_64.obj
 0001:00123344       _mr2hcII_32_0              10124344 f   FFTW3d:mr2hcII_32.obj
 0001:00123d0c       _mr2hcII_32                10124d0c f   FFTW3d:mr2hcII_32.obj
 0001:00122858       _r2hcII_32                 10123858 f   FFTW3d:r2hcII_32.obj
 0001:00122460       _r2hcII_16                 10123460 f   FFTW3d:r2hcII_16.obj
 0001:00122024       _r2hcII_15                 10123024 f   FFTW3d:r2hcII_15.obj
 0001:00121d94       _r2hcII_12                 10122d94 f   FFTW3d:r2hcII_12.obj
 0001:00121b80       _r2hcII_10                 10122b80 f   FFTW3d:r2hcII_10.obj
 0001:0012189c       _r2hcII_9                  1012289c f   FFTW3d:r2hcII_9.obj
 0001:001216e4       _r2hcII_8                  101226e4 f   FFTW3d:r2hcII_8.obj
 0001:00121530       _r2hcII_7                  10122530 f   FFTW3d:r2hcII_7.obj
 0001:0012140c       _r2hcII_6                  1012240c f   FFTW3d:r2hcII_6.obj
 0001:00121304       _r2hcII_5                  10122304 f   FFTW3d:r2hcII_5.obj
 0001:0012123c       _r2hcII_4                  1012223c f   FFTW3d:r2hcII_4.obj
 0001:00121194       _r2hcII_3                  10122194 f   FFTW3d:r2hcII_3.obj
 0001:00121098       _r2hcII_2                  10122098 f   FFTW3d:r2hcII_2.obj
 0001:0011b5cc       _hf2_64                    1011c5cc f   FFTW3d:hf2_64.obj
 0001:00119290       _hf2_32                    1011a290 f   FFTW3d:hf2_32.obj
 0001:001182b4       _hf2_16                    101192b4 f   FFTW3d:hf2_16.obj
 0001:00117cf8       _hf2_8                     10118cf8 f   FFTW3d:hf2_8.obj
 0001:00117af0       _hf2_4                     10118af0 f   FFTW3d:hf2_4.obj
 0001:0011392c       _hf_64                     1011492c f   FFTW3d:hf_64.obj
 0001:00111aec       _hf_32                     10112aec f   FFTW3d:hf_32.obj
 0001:00110f70       _hf_16                     10111f70 f   FFTW3d:hf_16.obj
 0001:00110298       _hf_15                     10111298 f   FFTW3d:hf_15.obj
 0001:0010faec       _hf_12                     10110aec f   FFTW3d:hf_12.obj
 0001:0010f350       _hf_10                     10110350 f   FFTW3d:hf_10.obj
 0001:0010ecac       _hf_9                      1010fcac f   FFTW3d:hf_9.obj
 0001:0010e86c       _hf_8                      1010f86c f   FFTW3d:hf_8.obj
 0001:0010e394       _hf_7                      1010f394 f   FFTW3d:hf_7.obj
 0001:0010e060       _hf_6                      1010f060 f   FFTW3d:hf_6.obj
 0001:0010dd4c       _hf_5                      1010ed4c f   FFTW3d:hf_5.obj
 0001:0010db84       _hf_4                      1010eb84 f   FFTW3d:hf_4.obj
 0001:0010da18       _hf_3                      1010ea18 f   FFTW3d:hf_3.obj
 0001:0010d948       _hf_2                      1010e948 f   FFTW3d:hf_2.obj
 0001:00109e90       _mr2hc_128_0               1010ae90 f   FFTW3d:mr2hc_128.obj
 0001:0010d8bc       _mr2hc_128                 1010e8bc f   FFTW3d:mr2hc_128.obj
 0001:001089fc       _mr2hc_64_0                101099fc f   FFTW3d:mr2hc_64.obj
 0001:00109e04       _mr2hc_64                  1010ae04 f   FFTW3d:mr2hc_64.obj
 0001:001081e8       _mr2hc_32_0                101091e8 f   FFTW3d:mr2hc_32.obj
 0001:00108970       _mr2hc_32                  10109970 f   FFTW3d:mr2hc_32.obj
 0001:0010796c       _r2hc_32                   1010896c f   FFTW3d:r2hc_32.obj
 0001:001075f0       _r2hc_16                   101085f0 f   FFTW3d:r2hc_16.obj
 0001:001071f4       _r2hc_15                   101081f4 f   FFTW3d:r2hc_15.obj
 0001:00106e10       _r2hc_14                   10107e10 f   FFTW3d:r2hc_14.obj
 0001:001069b8       _r2hc_13                   101079b8 f   FFTW3d:r2hc_13.obj
 0001:00106770       _r2hc_12                   10107770 f   FFTW3d:r2hc_12.obj
 0001:001063ac       _r2hc_11                   101073ac f   FFTW3d:r2hc_11.obj
 0001:00106194       _r2hc_10                   10107194 f   FFTW3d:r2hc_10.obj
 0001:00105ef8       _r2hc_9                    10106ef8 f   FFTW3d:r2hc_9.obj
 0001:00105da4       _r2hc_8                    10106da4 f   FFTW3d:r2hc_8.obj
 0001:00105be4       _r2hc_7                    10106be4 f   FFTW3d:r2hc_7.obj
 0001:00105ac4       _r2hc_6                    10106ac4 f   FFTW3d:r2hc_6.obj
 0001:001059b8       _r2hc_5                    101069b8 f   FFTW3d:r2hc_5.obj
 0001:00105900       _r2hc_4                    10106900 f   FFTW3d:r2hc_4.obj
 0001:0010584c       _r2hc_3                    1010684c f   FFTW3d:r2hc_3.obj
 0001:001057c4       _r2hc_2                    101067c4 f   FFTW3d:r2hc_2.obj
 0001:00103c64       _mhc2rIII_64_0             10104c64 f   FFTW3d:mhc2rIII_64.obj
 0001:00105738       _mhc2rIII_64               10106738 f   FFTW3d:mhc2rIII_64.obj
 0001:0010325c       _mhc2rIII_32_0             1010425c f   FFTW3d:mhc2rIII_32.obj
 0001:00103bd8       _mhc2rIII_32               10104bd8 f   FFTW3d:mhc2rIII_32.obj
 0001:0010285c       _hc2rIII_32                1010385c f   FFTW3d:hc2rIII_32.obj
 0001:00102440       _hc2rIII_16                10103440 f   FFTW3d:hc2rIII_16.obj
 0001:0010207c       _hc2rIII_15                1010307c f   FFTW3d:hc2rIII_15.obj
 0001:00101dc8       _hc2rIII_12                10102dc8 f   FFTW3d:hc2rIII_12.obj
 0001:00101b80       _hc2rIII_10                10102b80 f   FFTW3d:hc2rIII_10.obj
 0001:00101940       _hc2rIII_9                 10102940 f   FFTW3d:hc2rIII_9.obj
 0001:00101780       _hc2rIII_8                 10102780 f   FFTW3d:hc2rIII_8.obj
 0001:00101570       _hc2rIII_7                 10102570 f   FFTW3d:hc2rIII_7.obj
 0001:00101448       _hc2rIII_6                 10102448 f   FFTW3d:hc2rIII_6.obj
 0001:0010131c       _hc2rIII_5                 1010231c f   FFTW3d:hc2rIII_5.obj
 0001:00101248       _hc2rIII_4                 10102248 f   FFTW3d:hc2rIII_4.obj
 0001:001011a0       _hc2rIII_3                 101021a0 f   FFTW3d:hc2rIII_3.obj
 0001:00101074       _hc2rIII_2                 10102074 f   FFTW3d:hc2rIII_2.obj
 0001:000fc868       _hb_64                     100fd868 f   FFTW3d:hb_64.obj
 0001:000faa30       _hb_32                     100fba30 f   FFTW3d:hb_32.obj
 0001:000f9f80       _hb_16                     100faf80 f   FFTW3d:hb_16.obj
 0001:000f9204       _hb_15                     100fa204 f   FFTW3d:hb_15.obj
 0001:000f8ac0       _hb_12                     100f9ac0 f   FFTW3d:hb_12.obj
 0001:000f8380       _hb_10                     100f9380 f   FFTW3d:hb_10.obj
 0001:000f7c74       _hb_9                      100f8c74 f   FFTW3d:hb_9.obj
 0001:000f77f0       _hb_8                      100f87f0 f   FFTW3d:hb_8.obj
 0001:000f7268       _hb_7                      100f8268 f   FFTW3d:hb_7.obj
 0001:000f6f28       _hb_6                      100f7f28 f   FFTW3d:hb_6.obj
 0001:000f6c44       _hb_5                      100f7c44 f   FFTW3d:hb_5.obj
 0001:000f6a54       _hb_4                      100f7a54 f   FFTW3d:hb_4.obj
 0001:000f68c8       _hb_3                      100f78c8 f   FFTW3d:hb_3.obj
 0001:000f67e0       _hb_2                      100f77e0 f   FFTW3d:hb_2.obj
 0001:000f2ef8       _mhc2r_128_0               100f3ef8 f   FFTW3d:mhc2r_128.obj
 0001:000f6754       _mhc2r_128                 100f7754 f   FFTW3d:mhc2r_128.obj
 0001:000f17f0       _mhc2r_64_0                100f27f0 f   FFTW3d:mhc2r_64.obj
 0001:000f2e6c       _mhc2r_64                  100f3e6c f   FFTW3d:mhc2r_64.obj
 0001:000f0f68       _mhc2r_32_0                100f1f68 f   FFTW3d:mhc2r_32.obj
 0001:000f1764       _mhc2r_32                  100f2764 f   FFTW3d:mhc2r_32.obj
 0001:000f06e4       _hc2r_32                   100f16e4 f   FFTW3d:hc2r_32.obj
 0001:000f0380       _hc2r_16                   100f1380 f   FFTW3d:hc2r_16.obj
 0001:000eff60       _hc2r_15                   100f0f60 f   FFTW3d:hc2r_15.obj
 0001:000efb84       _hc2r_14                   100f0b84 f   FFTW3d:hc2r_14.obj
 0001:000ef724       _hc2r_13                   100f0724 f   FFTW3d:hc2r_13.obj
 0001:000ef4d0       _hc2r_12                   100f04d0 f   FFTW3d:hc2r_12.obj
 0001:000ef080       _hc2r_11                   100f0080 f   FFTW3d:hc2r_11.obj
 0001:000eee48       _hc2r_10                   100efe48 f   FFTW3d:hc2r_10.obj
 0001:000eec0c       _hc2r_9                    100efc0c f   FFTW3d:hc2r_9.obj
 0001:000eea88       _hc2r_8                    100efa88 f   FFTW3d:hc2r_8.obj
 0001:000ee874       _hc2r_7                    100ef874 f   FFTW3d:hc2r_7.obj
 0001:000ee750       _hc2r_6                    100ef750 f   FFTW3d:hc2r_6.obj
 0001:000ee628       _hc2r_5                    100ef628 f   FFTW3d:hc2r_5.obj
 0001:000ee554       _hc2r_4                    100ef554 f   FFTW3d:hc2r_4.obj
 0001:000ee4a4       _hc2r_3                    100ef4a4 f   FFTW3d:hc2r_3.obj
 0001:000ee298       _e10_8_0                   100ef298 f   FFTW3d:e10_8.obj
 0001:000ee424       _e10_8                     100ef424 f   FFTW3d:e10_8.obj
 0001:000ee0a0       _e01_8_0                   100ef0a0 f   FFTW3d:e01_8.obj
 0001:000ee218       _e01_8                     100ef218 f   FFTW3d:e01_8.obj
 0001:000e92cc       _t2_64                     100ea2cc f   FFTW3d:t2_64.obj
 0001:000e7254       _t2_32                     100e8254 f   FFTW3d:t2_32.obj
 0001:000e6584       _t2_16                     100e7584 f   FFTW3d:t2_16.obj
 0001:000e606c       _t2_8                      100e706c f   FFTW3d:t2_8.obj
 0001:000e5ea8       _t2_4                      100e6ea8 f   FFTW3d:t2_4.obj
 0001:000e1d28       _t1_64                     100e2d28 f   FFTW3d:t1_64.obj
 0001:000e01bc       _t1_32                     100e11bc f   FFTW3d:t1_32.obj
 0001:000df6ec       _t1_16                     100e06ec f   FFTW3d:t1_16.obj
 0001:000deb9c       _t1_15                     100dfb9c f   FFTW3d:t1_15.obj
 0001:000de4c0       _t1_12                     100df4c0 f   FFTW3d:t1_12.obj
 0001:000dde1c       _t1_10                     100dee1c f   FFTW3d:t1_10.obj
 0001:000dd844       _t1_9                      100de844 f   FFTW3d:t1_9.obj
 0001:000dd4ac       _t1_8                      100de4ac f   FFTW3d:t1_8.obj
 0001:000dd060       _t1_7                      100de060 f   FFTW3d:t1_7.obj
 0001:000dcd88       _t1_6                      100ddd88 f   FFTW3d:t1_6.obj
 0001:000dcac8       _t1_5                      100ddac8 f   FFTW3d:t1_5.obj
 0001:000dc92c       _t1_4                      100dd92c f   FFTW3d:t1_4.obj
 0001:000dc7e0       _t1_3                      100dd7e0 f   FFTW3d:t1_3.obj
 0001:000dc728       _t1_2                      100dd728 f   FFTW3d:t1_2.obj
 0001:000d9128       _m1_64_0                   100da128 f   FFTW3d:m1_64.obj
 0001:000dc694       _m1_64                     100dd694 f   FFTW3d:m1_64.obj
 0001:000d7ed4       _m1_32_0                   100d8ed4 f   FFTW3d:m1_32.obj
 0001:000d9094       _m1_32                     100da094 f   FFTW3d:m1_32.obj
 0001:000d775c       _m1_16_0                   100d875c f   FFTW3d:m1_16.obj
 0001:000d7e40       _m1_16                     100d8e40 f   FFTW3d:m1_16.obj
 0001:000d6f80       _n1_16                     100d7f80 f   FFTW3d:n1_16.obj
 0001:000d65f0       _n1_15                     100d75f0 f   FFTW3d:n1_15.obj
 0001:000d5ddc       _n1_14                     100d6ddc f   FFTW3d:n1_14.obj
 0001:000d53f0       _n1_13                     100d63f0 f   FFTW3d:n1_13.obj
 0001:000d4ed8       _n1_12                     100d5ed8 f   FFTW3d:n1_12.obj
 0001:000d46b0       _n1_11                     100d56b0 f   FFTW3d:n1_11.obj
 0001:000d41b0       _n1_10                     100d51b0 f   FFTW3d:n1_10.obj
 0001:000d3ce0       _n1_9                      100d4ce0 f   FFTW3d:n1_9.obj
 0001:000d39e0       _n1_8                      100d49e0 f   FFTW3d:n1_8.obj
 0001:000d3628       _n1_7                      100d4628 f   FFTW3d:n1_7.obj
 0001:000d33d8       _n1_6                      100d43d8 f   FFTW3d:n1_6.obj
 0001:000d31b0       _n1_5                      100d41b0 f   FFTW3d:n1_5.obj
 0001:000d3080       _n1_4                      100d4080 f   FFTW3d:n1_4.obj
 0001:000d2f6c       _n1_3                      100d3f6c f   FFTW3d:n1_3.obj
 0001:000d2eb8       _n1_2                      100d3eb8 f   FFTW3d:n1_2.obj
 0001:000d1c88       _q1_6                      100d2c88 f   FFTW3d:q1_6.obj
 0001:000d0e38       _q1_5                      100d1e38 f   FFTW3d:q1_5.obj
 0001:000d0a28       _q1_3                      100d1a28 f   FFTW3d:q1_3.obj
 0001:000ce880       _q1_8                      100cf880 f   FFTW3d:q1_8.obj
 0001:000ce1b0       _q1_4                      100cf1b0 f   FFTW3d:q1_4.obj
 0001:000ce050       _q1_2                      100cf050 f   FFTW3d:q1_2.obj
 0001:000cc608       _q1bv_8                    100cd608 f   FFTW3d:q1bv_8.obj
 0001:000c9e38       _BYTW                      100cae38 f   FFTW3d:t1bv_64.obj
 0001:000cbf40       _VBYI                      100ccf40 f   FFTW3d:q1fv_8.obj
 0001:000cc06c       _q1bv_4                    100cd06c f   FFTW3d:q1bv_4.obj
 0001:000cbf58       _q1bv_2                    100ccf58 f   FFTW3d:q1bv_2.obj
 0001:000ca524       _q1fv_8                    100cb524 f   FFTW3d:q1fv_8.obj
 0001:000c33bc       _BYTWJ                     100c43bc f   FFTW3d:t1fv_64.obj
 0001:000cbf40       _VBYI                      100ccf40 f   FFTW3d:q1fv_8.obj
 0001:000c9f88       _q1fv_4                    100caf88 f   FFTW3d:q1fv_4.obj
 0001:000c9e74       _q1fv_2                    100cae74 f   FFTW3d:q1fv_2.obj
 0001:000c72d4       _t1bv_64                   100c82d4 f   FFTW3d:t1bv_64.obj
 0001:000c9e38       _BYTW                      100cae38 f   FFTW3d:t1bv_64.obj
 0001:000c6118       _t1bv_32                   100c7118 f   FFTW3d:t1bv_32.obj
 0001:000c59c0       _t1bv_16                   100c69c0 f   FFTW3d:t1bv_16.obj
 0001:000c5138       _t1bv_15                   100c6138 f   FFTW3d:t1bv_15.obj
 0001:000c4bf8       _t1bv_12                   100c5bf8 f   FFTW3d:t1bv_12.obj
 0001:000c4718       _t1bv_10                   100c5718 f   FFTW3d:t1bv_10.obj
 0001:000c4208       _t1bv_9                    100c5208 f   FFTW3d:t1bv_9.obj
 0001:000c3f08       _t1bv_8                    100c4f08 f   FFTW3d:t1bv_8.obj
 0001:000c3b84       _t1bv_7                    100c4b84 f   FFTW3d:t1bv_7.obj
 0001:000c3940       _t1bv_6                    100c4940 f   FFTW3d:t1bv_6.obj
 0001:000c3724       _t1bv_5                    100c4724 f   FFTW3d:t1bv_5.obj
 0001:000c35cc       _t1bv_4                    100c45cc f   FFTW3d:t1bv_4.obj
 0001:000c34a4       _t1bv_3                    100c44a4 f   FFTW3d:t1bv_3.obj
 0001:000c33f8       _t1bv_2                    100c43f8 f   FFTW3d:t1bv_2.obj
 0001:000c0828       _t1fv_64                   100c1828 f   FFTW3d:t1fv_64.obj
 0001:000c33bc       _BYTWJ                     100c43bc f   FFTW3d:t1fv_64.obj
 0001:000bf654       _t1fv_32                   100c0654 f   FFTW3d:t1fv_32.obj
 0001:000beef8       _t1fv_16                   100bfef8 f   FFTW3d:t1fv_16.obj
 0001:000be668       _t1fv_15                   100bf668 f   FFTW3d:t1fv_15.obj
 0001:000be138       _t1fv_12                   100bf138 f   FFTW3d:t1fv_12.obj
 0001:000bdc58       _t1fv_10                   100bec58 f   FFTW3d:t1fv_10.obj
 0001:000bd754       _t1fv_9                    100be754 f   FFTW3d:t1fv_9.obj
 0001:000bd454       _t1fv_8                    100be454 f   FFTW3d:t1fv_8.obj
 0001:000bd0d0       _t1fv_7                    100be0d0 f   FFTW3d:t1fv_7.obj
 0001:000bce8c       _t1fv_6                    100bde8c f   FFTW3d:t1fv_6.obj
 0001:000bcc70       _t1fv_5                    100bdc70 f   FFTW3d:t1fv_5.obj
 0001:000bcb20       _t1fv_4                    100bdb20 f   FFTW3d:t1fv_4.obj
 0001:000bc9f8       _t1fv_3                    100bd9f8 f   FFTW3d:t1fv_3.obj
 0001:000bc94c       _t1fv_2                    100bd94c f   FFTW3d:t1fv_2.obj
 0001:000ba9f4       _m2bv_64_0                 100bb9f4 f   FFTW3d:m2bv_64.obj
 0001:000bc8bc       _m2bv_64                   100bd8bc f   FFTW3d:m2bv_64.obj
 0001:000b9e14       _m2bv_32_0                 100bae14 f   FFTW3d:m2bv_32.obj
 0001:000ba964       _m2bv_32                   100bb964 f   FFTW3d:m2bv_32.obj
 0001:000b9954       _m2bv_16_0                 100ba954 f   FFTW3d:m2bv_16.obj
 0001:000b9d84       _m2bv_16                   100bad84 f   FFTW3d:m2bv_16.obj
 0001:000b79e4       _m2fv_64_0                 100b89e4 f   FFTW3d:m2fv_64.obj
 0001:000b98c4       _m2fv_64                   100ba8c4 f   FFTW3d:m2fv_64.obj
 0001:000b6e04       _m2fv_32_0                 100b7e04 f   FFTW3d:m2fv_32.obj
 0001:000b7954       _m2fv_32                   100b8954 f   FFTW3d:m2fv_32.obj
 0001:000b6940       _m2fv_16_0                 100b7940 f   FFTW3d:m2fv_16.obj
 0001:000b6d74       _m2fv_16                   100b7d74 f   FFTW3d:m2fv_16.obj
 0001:000b4928       _m1bv_64_0                 100b5928 f   FFTW3d:m1bv_64.obj
 0001:000b68ac       _m1bv_64                   100b78ac f   FFTW3d:m1bv_64.obj
 0001:000b3cac       _m1bv_32_0                 100b4cac f   FFTW3d:m1bv_32.obj
 0001:000b4894       _m1bv_32                   100b5894 f   FFTW3d:m1bv_32.obj
 0001:000b37d0       _m1bv_16_0                 100b47d0 f   FFTW3d:m1bv_16.obj
 0001:000b3c18       _m1bv_16                   100b4c18 f   FFTW3d:m1bv_16.obj
 0001:000b179c       _m1fv_64_0                 100b279c f   FFTW3d:m1fv_64.obj
 0001:000b373c       _m1fv_64                   100b473c f   FFTW3d:m1fv_64.obj
 0001:000b0b2c       _m1fv_32_0                 100b1b2c f   FFTW3d:m1fv_32.obj
 0001:000b1708       _m1fv_32                   100b2708 f   FFTW3d:m1fv_32.obj
 0001:000b064c       _m1fv_16_0                 100b164c f   FFTW3d:m1fv_16.obj
 0001:000b0a98       _m1fv_16                   100b1a98 f   FFTW3d:m1fv_16.obj
 0001:000b01b8       _n2bv_16                   100b11b8 f   FFTW3d:n2bv_16.obj
 0001:000afba0       _n2bv_15                   100b0ba0 f   FFTW3d:n2bv_15.obj
 0001:000af5f0       _n2bv_14                   100b05f0 f   FFTW3d:n2bv_14.obj
 0001:000aef8c       _n2bv_13                   100aff8c f   FFTW3d:n2bv_13.obj
 0001:000aec44       _n2bv_12                   100afc44 f   FFTW3d:n2bv_12.obj
 0001:000ae674       _n2bv_11                   100af674 f   FFTW3d:n2bv_11.obj
 0001:000ae344       _n2bv_10                   100af344 f   FFTW3d:n2bv_10.obj
 0001:000adfc0       _n2bv_9                    100aefc0 f   FFTW3d:n2bv_9.obj
 0001:000adde4       _n2bv_8                    100aede4 f   FFTW3d:n2bv_8.obj
 0001:000adb64       _n2bv_7                    100aeb64 f   FFTW3d:n2bv_7.obj
 0001:000ad9f4       _n2bv_6                    100ae9f4 f   FFTW3d:n2bv_6.obj
 0001:000ad888       _n2bv_5                    100ae888 f   FFTW3d:n2bv_5.obj
 0001:000ad7b0       _n2bv_4                    100ae7b0 f   FFTW3d:n2bv_4.obj
 0001:000ad6dc       _n2bv_3                    100ae6dc f   FFTW3d:n2bv_3.obj
 0001:000ad654       _n2bv_2                    100ae654 f   FFTW3d:n2bv_2.obj
 0001:000ad1bc       _n2fv_16                   100ae1bc f   FFTW3d:n2fv_16.obj
 0001:000acb90       _n2fv_15                   100adb90 f   FFTW3d:n2fv_15.obj
 0001:000ac5e0       _n2fv_14                   100ad5e0 f   FFTW3d:n2fv_14.obj
 0001:000abf80       _n2fv_13                   100acf80 f   FFTW3d:n2fv_13.obj
 0001:000abc30       _n2fv_12                   100acc30 f   FFTW3d:n2fv_12.obj
 0001:000ab66c       _n2fv_11                   100ac66c f   FFTW3d:n2fv_11.obj
 0001:000ab33c       _n2fv_10                   100ac33c f   FFTW3d:n2fv_10.obj
 0001:000aafbc       _n2fv_9                    100abfbc f   FFTW3d:n2fv_9.obj
 0001:000aade0       _n2fv_8                    100abde0 f   FFTW3d:n2fv_8.obj
 0001:000aab60       _n2fv_7                    100abb60 f   FFTW3d:n2fv_7.obj
 0001:000aa9ec       _n2fv_6                    100ab9ec f   FFTW3d:n2fv_6.obj
 0001:000aa880       _n2fv_5                    100ab880 f   FFTW3d:n2fv_5.obj
 0001:000aa7a8       _n2fv_4                    100ab7a8 f   FFTW3d:n2fv_4.obj
 0001:000aa6d4       _n2fv_3                    100ab6d4 f   FFTW3d:n2fv_3.obj
 0001:000aa64c       _n2fv_2                    100ab64c f   FFTW3d:n2fv_2.obj
 0001:000aa198       _n1bv_16                   100ab198 f   FFTW3d:n1bv_16.obj
 0001:000a9b64       _n1bv_15                   100aab64 f   FFTW3d:n1bv_15.obj
 0001:000a9598       _n1bv_14                   100aa598 f   FFTW3d:n1bv_14.obj
 0001:000a8f14       _n1bv_13                   100a9f14 f   FFTW3d:n1bv_13.obj
 0001:000a8bb0       _n1bv_12                   100a9bb0 f   FFTW3d:n1bv_12.obj
 0001:000a85c4       _n1bv_11                   100a95c4 f   FFTW3d:n1bv_11.obj
 0001:000a8274       _n1bv_10                   100a9274 f   FFTW3d:n1bv_10.obj
 0001:000a7ed0       _n1bv_9                    100a8ed0 f   FFTW3d:n1bv_9.obj
 0001:000a7cd4       _n1bv_8                    100a8cd4 f   FFTW3d:n1bv_8.obj
 0001:000a7a38       _n1bv_7                    100a8a38 f   FFTW3d:n1bv_7.obj
 0001:000a78b0       _n1bv_6                    100a88b0 f   FFTW3d:n1bv_6.obj
 0001:000a7730       _n1bv_5                    100a8730 f   FFTW3d:n1bv_5.obj
 0001:000a7640       _n1bv_4                    100a8640 f   FFTW3d:n1bv_4.obj
 0001:000a755c       _n1bv_3                    100a855c f   FFTW3d:n1bv_3.obj
 0001:000a74c8       _n1bv_2                    100a84c8 f   FFTW3d:n1bv_2.obj
 0001:000a7010       _n1fv_16                   100a8010 f   FFTW3d:n1fv_16.obj
 0001:000a69c4       _n1fv_15                   100a79c4 f   FFTW3d:n1fv_15.obj
 0001:000a63f4       _n1fv_14                   100a73f4 f   FFTW3d:n1fv_14.obj
 0001:000a5d78       _n1fv_13                   100a6d78 f   FFTW3d:n1fv_13.obj
 0001:000a5a0c       _n1fv_12                   100a6a0c f   FFTW3d:n1fv_12.obj
 0001:000a5428       _n1fv_11                   100a6428 f   FFTW3d:n1fv_11.obj
 0001:000a50d8       _n1fv_10                   100a60d8 f   FFTW3d:n1fv_10.obj
 0001:000a4d38       _n1fv_9                    100a5d38 f   FFTW3d:n1fv_9.obj
 0001:000a4b3c       _n1fv_8                    100a5b3c f   FFTW3d:n1fv_8.obj
 0001:000a48a0       _n1fv_7                    100a58a0 f   FFTW3d:n1fv_7.obj
 0001:000a4714       _n1fv_6                    100a5714 f   FFTW3d:n1fv_6.obj
 0001:000a4594       _n1fv_5                    100a5594 f   FFTW3d:n1fv_5.obj
 0001:000a44a4       _n1fv_4                    100a54a4 f   FFTW3d:n1fv_4.obj
 0001:000a43c0       _n1fv_3                    100a53c0 f   FFTW3d:n1fv_3.obj
 0001:000a432c       _n1fv_2                    100a532c f   FFTW3d:n1fv_2.obj
 0001:00012b88       _equal_instr               10013b88 f   FFTW3f:twiddle.obj
 0001:000a3d98       _ok_twid                   100a4d98 f   FFTW3d:twiddle.obj
 0001:000a3dd8       _lookup                    100a4dd8 f   FFTW3d:twiddle.obj
 0001:0013adcc       _twlen0                    1013bdcc f   FFTW3l:twiddle.obj
 0001:000a3e40       _compute                   100a4e40 f   FFTW3d:twiddle.obj
 0001:000a32b8       _Ntuple_transposable       100a42b8 f   FFTW3d:transpose.obj
 0001:00139dd0       _gcd                       1013add0 f   FFTW3l:transpose.obj
 0001:00139ecc       _rec_transpose_Ntuple      1013aecc f   FFTW3l:transpose.obj
 0001:0013a10c       _rec_transpose_swap_Ntuple 1013b10c f   FFTW3l:transpose.obj
 0001:000a34d4       _rec_transpose_sq_ip_Ntuple 100a44d4 f   FFTW3d:transpose.obj
 0001:00139bcc       _really_pickdim            1013abcc f   FFTW3l:pickdim.obj
 0001:000a1b50       _apply_re11                100a2b50 f   FFTW3d:reodft11e-r2hc-odd.obj
 0001:000a2500       _apply_ro11                100a3500 f   FFTW3d:reodft11e-r2hc-odd.obj
 0001:0009d504       _awake                     1009e504 f   FFTW3d:vrank-geq1-rdft2.obj
 0001:0009c5e0       _destroy                   1009d5e0 f   FFTW3d:rdft-dht.obj
 0001:000a2ef8       _print                     100a3ef8 f   FFTW3d:reodft11e-r2hc-odd.obj
 0001:000a2f20       _applicable0               100a3f20 f   FFTW3d:reodft11e-r2hc-odd.obj
 0001:000a2f74       _applicable                100a3f74 f   FFTW3d:reodft11e-r2hc-odd.obj
 0001:000a2fa4       _mkplan                    100a3fa4 f   FFTW3d:reodft11e-r2hc-odd.obj
 0001:000a30e0       _mksolver                  100a40e0 f   FFTW3d:reodft11e-r2hc-odd.obj
 0001:000a0f64       _apply_re11                100a1f64 f   FFTW3d:reodft11e-radix2.obj
 0001:000a13dc       _apply_ro11                100a23dc f   FFTW3d:reodft11e-radix2.obj
 0001:000a1850       _awake                     100a2850 f   FFTW3d:reodft11e-radix2.obj
 0001:0009c5e0       _destroy                   1009d5e0 f   FFTW3d:rdft-dht.obj
 0001:000a18b0       _print                     100a28b0 f   FFTW3d:reodft11e-radix2.obj
 0001:000a18d8       _applicable0               100a28d8 f   FFTW3d:reodft11e-radix2.obj
 0001:000a1924       _applicable                100a2924 f   FFTW3d:reodft11e-radix2.obj
 0001:000a1954       _mkplan                    100a2954 f   FFTW3d:reodft11e-radix2.obj
 0001:000a1b2c       _mksolver                  100a2b2c f   FFTW3d:reodft11e-radix2.obj
 0001:000a01d8       _apply_re01                100a11d8 f   FFTW3d:reodft010e-r2hc.obj
 0001:000a0454       _apply_ro01                100a1454 f   FFTW3d:reodft010e-r2hc.obj
 0001:000a0700       _apply_re10                100a1700 f   FFTW3d:reodft010e-r2hc.obj
 0001:000a0984       _apply_ro10                100a1984 f   FFTW3d:reodft010e-r2hc.obj
 0001:000a0c38       _awake                     100a1c38 f   FFTW3d:reodft010e-r2hc.obj
 0001:0009c5e0       _destroy                   1009d5e0 f   FFTW3d:rdft-dht.obj
 0001:000a0c7c       _print                     100a1c7c f   FFTW3d:reodft010e-r2hc.obj
 0001:000a0ca4       _applicable0               100a1ca4 f   FFTW3d:reodft010e-r2hc.obj
 0001:000a0cf0       _applicable                100a1cf0 f   FFTW3d:reodft010e-r2hc.obj
 0001:000a0d20       _mkplan                    100a1d20 f   FFTW3d:reodft010e-r2hc.obj
 0001:000a0f40       _mksolver                  100a1f40 f   FFTW3d:reodft010e-r2hc.obj
 0001:0009fd00       _apply                     100a0d00 f   FFTW3d:rodft00e-r2hc-pad.obj
 0001:0000d5f4       _awake                     1000e5f4 f   FFTW3f:rank-geq2-rdft2.obj
 0001:0009ff58       _destroy                   100a0f58 f   FFTW3d:rodft00e-r2hc-pad.obj
 0001:0000ea50       _print                     1000fa50 f   FFTW3f:rodft00e-r2hc-pad.obj
 0001:0009ff74       _applicable0               100a0f74 f   FFTW3d:rodft00e-r2hc-pad.obj
 0001:0009ffb0       _applicable                100a0fb0 f   FFTW3d:rodft00e-r2hc-pad.obj
 0001:0009ffe0       _mkplan                    100a0fe0 f   FFTW3d:rodft00e-r2hc-pad.obj
 0001:000a01b4       _mksolver                  100a11b4 f   FFTW3d:rodft00e-r2hc-pad.obj
 0001:0009f890       _apply                     100a0890 f   FFTW3d:redft00e-r2hc-pad.obj
 0001:0000d5f4       _awake                     1000e5f4 f   FFTW3f:rank-geq2-rdft2.obj
 0001:0009ff58       _destroy                   100a0f58 f   FFTW3d:rodft00e-r2hc-pad.obj
 0001:001364e4       _print                     101374e4 f   FFTW3l:redft00e-r2hc-pad.obj
 0001:0009fab0       _applicable0               100a0ab0 f   FFTW3d:redft00e-r2hc-pad.obj
 0001:0009faf4       _applicable                100a0af4 f   FFTW3d:redft00e-r2hc-pad.obj
 0001:0009fb24       _mkplan                    100a0b24 f   FFTW3d:redft00e-r2hc-pad.obj
 0001:0009fcdc       _mksolver                  100a0cdc f   FFTW3d:redft00e-r2hc-pad.obj
 0001:0009edc8       _applicable_f              1009fdc8 f   FFTW3d:rdft2-radix2.obj
 0001:0009ee0c       _applicable_f_dft          1009fe0c f   FFTW3d:rdft2-radix2.obj
 0001:0009ee5c       _applicable_b              1009fe5c f   FFTW3d:rdft2-radix2.obj
 0001:0009eeb8       _applicable_b_dft          1009feb8 f   FFTW3d:rdft2-radix2.obj
 0001:0009ef08       _k_f_dft                   1009ff08 f   FFTW3d:rdft2-radix2.obj
 0001:0009f02c       _apply_f_dft               100a002c f   FFTW3d:rdft2-radix2.obj
 0001:0009f0d4       _mkcld_f_dft               100a00d4 f   FFTW3d:rdft2-radix2.obj
 0001:0009f12c       _k_f_rdft                  100a012c f   FFTW3d:rdft2-radix2.obj
 0001:0009f228       _apply_f_rdft              100a0228 f   FFTW3d:rdft2-radix2.obj
 0001:0009f2c0       _mkcld_f_rdft              100a02c0 f   FFTW3d:rdft2-radix2.obj
 0001:0009f32c       _k_b_dft                   100a032c f   FFTW3d:rdft2-radix2.obj
 0001:0009f430       _apply_b_dft               100a0430 f   FFTW3d:rdft2-radix2.obj
 0001:0009f4e0       _mkcld_b_dft               100a04e0 f   FFTW3d:rdft2-radix2.obj
 0001:0009f538       _k_b_rdft                  100a0538 f   FFTW3d:rdft2-radix2.obj
 0001:0009f630       _apply_b_rdft              100a0630 f   FFTW3d:rdft2-radix2.obj
 0001:0009f6d0       _mkcld_b_rdft              100a06d0 f   FFTW3d:rdft2-radix2.obj
 0001:0009f73c       _awake                     100a073c f   FFTW3d:rdft2-radix2.obj
 0001:0009c5e0       _destroy                   1009d5e0 f   FFTW3d:rdft-dht.obj
 0001:00136194       _print                     10137194 f   FFTW3l:rdft2-radix2.obj
 0001:0009f788       _mkplan                    100a0788 f   FFTW3d:rdft2-radix2.obj
 0001:0009f850       _mksolver                  100a0850 f   FFTW3d:rdft2-radix2.obj
 0001:0009ea30       _apply_r2hc                1009fa30 f   FFTW3d:rank-geq2-rdft2.obj
 0001:0013545c       _apply_hc2r                1013645c f   FFTW3l:rank-geq2-rdft2.obj
 0001:0000d5f4       _awake                     1000e5f4 f   FFTW3f:rank-geq2-rdft2.obj
 0001:0009ea60       _destroy                   1009fa60 f   FFTW3d:rank-geq2-rdft2.obj
 0001:0009ea7c       _print                     1009fa7c f   FFTW3d:rank-geq2-rdft2.obj
 0001:000968d8       _picksplit                 100978d8 f   FFTW3d:rank-geq2.obj
 0001:0009ea9c       _applicable0               1009fa9c f   FFTW3d:rank-geq2-rdft2.obj
 0001:0009eb0c       _applicable                1009fb0c f   FFTW3d:rank-geq2-rdft2.obj
 0001:0009eb84       _mkplan                    1009fb84 f   FFTW3d:rank-geq2-rdft2.obj
 0001:0009ed70       _mksolver                  1009fd70 f   FFTW3d:rank-geq2-rdft2.obj
 0001:0009dd90       _hc2c                      1009ed90 f   FFTW3d:buffered2.obj
 0001:001347c8       _c2hc                      101357c8 f   FFTW3l:buffered2.obj
 0001:0009e0ac       _apply_r2hc                1009f0ac f   FFTW3d:buffered2.obj
 0001:0009e264       _apply_hc2r                1009f264 f   FFTW3d:buffered2.obj
 0001:0000d5f4       _awake                     1000e5f4 f   FFTW3f:rank-geq2-rdft2.obj
 0001:0009ff58       _destroy                   100a0f58 f   FFTW3d:rodft00e-r2hc-pad.obj
 0001:0009e41c       _print                     1009f41c f   FFTW3d:buffered2.obj
 0001:0009e470       _min_nbuf                  1009f470 f   FFTW3d:buffered2.obj
 0001:0000d14c       _compute_nbuf              1000e14c f   FFTW3f:buffered2.obj
 0001:0000857c       _toobig                    1000957c f   FFTW3f:buffered.obj
 0001:0009e5a4       _applicable0               1009f5a4 f   FFTW3d:buffered2.obj
 0001:0009e5fc       _applicable                1009f5fc f   FFTW3d:buffered2.obj
 0001:0009e668       _mkplan                    1009f668 f   FFTW3d:buffered2.obj
 0001:0009ea00       _mksolver                  1009fa00 f   FFTW3d:buffered2.obj
 0001:0009d8f8       _applicable                1009e8f8 f   FFTW3d:rank0-rdft2.obj
 0001:0009d960       _apply_r2hc                1009e960 f   FFTW3d:rank0-rdft2.obj
 0001:0009dae0       _apply_r2hc_inplace        1009eae0 f   FFTW3d:rank0-rdft2.obj
 0001:00134364       _apply_hc2r                10135364 f   FFTW3l:rank0-rdft2.obj
 0001:0009dc44       _awake                     1009ec44 f   FFTW3d:rank0-rdft2.obj
 0001:0009dc60       _destroy                   1009ec60 f   FFTW3d:rank0-rdft2.obj
 0001:0000c518       _print                     1000d518 f   FFTW3f:rank0-rdft2.obj
 0001:0009dc74       _mkplan                    1009ec74 f   FFTW3d:rank0-rdft2.obj
 0001:0009dd6c       _mksolver                  1009ed6c f   FFTW3d:rank0-rdft2.obj
 0001:0000c108       _apply                     1000d108 f   FFTW3f:nop2.obj
 0001:0009d818       _applicable                1009e818 f   FFTW3d:nop2.obj
 0001:0009d888       _print                     1009e888 f   FFTW3d:nop2.obj
 0001:0009d898       _mkplan                    1009e898 f   FFTW3d:nop2.obj
 0001:0009d8d4       _mksolver                  1009e8d4 f   FFTW3d:nop2.obj
 0001:00133c0c       _apply                     10134c0c f   FFTW3l:vrank-geq1-rdft2.obj
 0001:0009d504       _awake                     1009e504 f   FFTW3d:vrank-geq1-rdft2.obj
 0001:0009c5e0       _destroy                   1009d5e0 f   FFTW3d:rdft-dht.obj
 0001:0000bde8       _print                     1000cde8 f   FFTW3f:vrank-geq1-rdft2.obj
 0001:0009d518       _pickdim                   1009e518 f   FFTW3d:vrank-geq1-rdft2.obj
 0001:0009d53c       _applicable0               1009e53c f   FFTW3d:vrank-geq1-rdft2.obj
 0001:0009d5b4       _applicable                1009e5b4 f   FFTW3d:vrank-geq1-rdft2.obj
 0001:0009d688       _mkplan                    1009e688 f   FFTW3d:vrank-geq1-rdft2.obj
 0001:0009d7c0       _mksolver                  1009e7c0 f   FFTW3d:vrank-geq1-rdft2.obj
 0001:0009c9b4       _apply                     1009d9b4 f   FFTW3d:dht-rader.obj
 0001:0009d01c       _mkomega                   1009e01c f   FFTW3d:dht-rader.obj
 0001:0009d11c       _free_omega                1009e11c f   FFTW3d:dht-rader.obj
 0001:0009d130       _awake                     1009e130 f   FFTW3d:dht-rader.obj
 0001:0009d188       _destroy                   1009e188 f   FFTW3d:dht-rader.obj
 0001:0009d1ac       _print                     1009e1ac f   FFTW3d:dht-rader.obj
 0001:0009d20c       _applicable0               1009e20c f   FFTW3d:dht-rader.obj
 0001:0009d264       _applicable                1009e264 f   FFTW3d:dht-rader.obj
 0001:0009d290       _mkplan                    1009e290 f   FFTW3d:dht-rader.obj
 0001:0009d4e0       _mksolver                  1009e4e0 f   FFTW3d:dht-rader.obj
 0001:00132f4c       _apply                     10133f4c f   FFTW3l:dht-r2hc.obj
 0001:0009d504       _awake                     1009e504 f   FFTW3d:vrank-geq1-rdft2.obj
 0001:0009c5e0       _destroy                   1009d5e0 f   FFTW3d:rdft-dht.obj
 0001:0009c840       _print                     1009d840 f   FFTW3d:dht-r2hc.obj
 0001:0009c85c       _applicable0               1009d85c f   FFTW3d:dht-r2hc.obj
 0001:0009c8a4       _applicable                1009d8a4 f   FFTW3d:dht-r2hc.obj
 0001:0009c8d0       _mkplan                    1009d8d0 f   FFTW3d:dht-r2hc.obj
 0001:0009c990       _mksolver                  1009d990 f   FFTW3d:dht-r2hc.obj
 0001:0009c3f8       _apply_r2hc                1009d3f8 f   FFTW3d:rdft-dht.obj
 0001:0009c478       _apply_hc2r                1009d478 f   FFTW3d:rdft-dht.obj
 0001:0009c4f0       _apply_hc2r_save           1009d4f0 f   FFTW3d:rdft-dht.obj
 0001:0009d504       _awake                     1009e504 f   FFTW3d:vrank-geq1-rdft2.obj
 0001:0009c5e0       _destroy                   1009d5e0 f   FFTW3d:rdft-dht.obj
 0001:0009c5f0       _print                     1009d5f0 f   FFTW3d:rdft-dht.obj
 0001:0009c624       _applicable0               1009d624 f   FFTW3d:rdft-dht.obj
 0001:0009c66c       _applicable                1009d66c f   FFTW3d:rdft-dht.obj
 0001:0009c69c       _mkplan                    1009d69c f   FFTW3d:rdft-dht.obj
 0001:0009c81c       _mksolver                  1009d81c f   FFTW3d:rdft-dht.obj
 0001:001329e0       _apply                     101339e0 f   FFTW3l:dft-r2hc.obj
 0001:0009d504       _awake                     1009e504 f   FFTW3d:vrank-geq1-rdft2.obj
 0001:0009c5e0       _destroy                   1009d5e0 f   FFTW3d:rdft-dht.obj
 0001:00132a88       _print                     10133a88 f   FFTW3l:dft-r2hc.obj
 0001:0009c1e4       _applicable0               1009d1e4 f   FFTW3d:dft-r2hc.obj
 0001:0009c218       _split                     1009d218 f   FFTW3d:dft-r2hc.obj
 0001:0009c254       _applicable                1009d254 f   FFTW3d:dft-r2hc.obj
 0001:0009c2e8       _mkplan                    1009d2e8 f   FFTW3d:dft-r2hc.obj
 0001:0009c3d4       _mksolver                  1009d3d4 f   FFTW3d:dft-r2hc.obj
 0001:0009bf58       _apply                     1009cf58 f   FFTW3d:rank-geq2.obj
 0001:0000d5f4       _awake                     1000e5f4 f   FFTW3f:rank-geq2-rdft2.obj
 0001:0009ff58       _destroy                   100a0f58 f   FFTW3d:rodft00e-r2hc-pad.obj
 0001:0000a768       _print                     1000b768 f   FFTW3f:rank-geq2.obj
 0001:000968d8       _picksplit                 100978d8 f   FFTW3d:rank-geq2.obj
 0001:0009bf80       _applicable0               1009cf80 f   FFTW3d:rank-geq2.obj
 0001:0009bfc4       _applicable                1009cfc4 f   FFTW3d:rank-geq2.obj
 0001:0009c034       _mkplan                    1009d034 f   FFTW3d:rank-geq2.obj
 0001:0009c18c       _mksolver                  1009d18c f   FFTW3d:rank-geq2.obj
 0001:0009b1f0       _apply_dit                 1009c1f0 f   FFTW3d:generic.obj
 0001:0009b71c       _apply_dif                 1009c71c f   FFTW3d:generic.obj
 0001:0009bc38       _awake                     1009cc38 f   FFTW3d:generic.obj
 0001:0009c5e0       _destroy                   1009d5e0 f   FFTW3d:rdft-dht.obj
 0001:00132464       _print                     10133464 f   FFTW3l:generic.obj
 0001:0009bc70       _applicable0               1009cc70 f   FFTW3d:generic.obj
 0001:0009bcc0       _applicable                1009ccc0 f   FFTW3d:generic.obj
 0001:0009bd14       _mkplan                    1009cd14 f   FFTW3d:generic.obj
 0001:0009bf18       _mksolver                  1009cf18 f   FFTW3d:generic.obj
 0001:001306d8       _apply_aux                 101316d8 f   FFTW3l:rader-hc2hc.obj
 0001:00099f68       _apply_dit                 1009af68 f   FFTW3d:rader-hc2hc.obj
 0001:0009a50c       _apply_dif                 1009b50c f   FFTW3d:rader-hc2hc.obj
 0001:0009ab1c       _mktwiddle                 1009bb1c f   FFTW3d:rader-hc2hc.obj
 0001:0009ac94       _free_twiddle              1009bc94 f   FFTW3d:rader-hc2hc.obj
 0001:0009aca8       _awake                     1009bca8 f   FFTW3d:rader-hc2hc.obj
 0001:0009ad30       _destroy                   1009bd30 f   FFTW3d:rader-hc2hc.obj
 0001:00131570       _print                     10132570 f   FFTW3l:rader-hc2hc.obj
 0001:0009ad54       _applicable0               1009bd54 f   FFTW3d:rader-hc2hc.obj
 0001:0009adb0       _applicable                1009bdb0 f   FFTW3d:rader-hc2hc.obj
 0001:0009ade0       _mkP                       1009bde0 f   FFTW3d:rader-hc2hc.obj
 0001:0009af44       _mkplan_dit                1009bf44 f   FFTW3d:rader-hc2hc.obj
 0001:0009b070       _mkplan_dif                1009c070 f   FFTW3d:rader-hc2hc.obj
 0001:0009b198       _mksolver_dit              1009c198 f   FFTW3d:rader-hc2hc.obj
 0001:0009b1b0       _mksolver_dif              1009c1b0 f   FFTW3d:rader-hc2hc.obj
 0001:00099a1c       _apply                     1009aa1c f   FFTW3d:buffered.obj
 0001:0013028c       _awake                     1013128c f   FFTW3l:buffered.obj
 0001:00097828       _destroy                   10098828 f   FFTW3d:buffered.obj
 0001:00099ad4       _print                     1009aad4 f   FFTW3d:buffered.obj
 0001:0000d14c       _compute_nbuf              1000e14c f   FFTW3f:buffered2.obj
 0001:0000857c       _toobig                    1000957c f   FFTW3f:buffered.obj
 0001:00099b10       _applicable0               1009ab10 f   FFTW3d:buffered.obj
 0001:00099bcc       _applicable                1009abcc f   FFTW3d:buffered.obj
 0001:00099c38       _mkplan                    1009ac38 f   FFTW3d:buffered.obj
 0001:00099f38       _mksolver                  1009af38 f   FFTW3d:buffered.obj
 0001:0000c108       _apply                     1000d108 f   FFTW3f:nop2.obj
 0001:00099950       _applicable                1009a950 f   FFTW3d:nop.obj
 0001:000999ac       _print                     1009a9ac f   FFTW3d:nop.obj
 0001:000999bc       _mkplan                    1009a9bc f   FFTW3d:nop.obj
 0001:000999f8       _mksolver                  1009a9f8 f   FFTW3d:nop.obj
 0001:0012fe1c       _apply                     10130e1c f   FFTW3l:vrank-geq1.obj
 0001:0009d504       _awake                     1009e504 f   FFTW3d:vrank-geq1-rdft2.obj
 0001:0009c5e0       _destroy                   1009d5e0 f   FFTW3d:rdft-dht.obj
 0001:00008144       _print                     10009144 f   FFTW3f:vrank-geq1.obj
 0001:0009d518       _pickdim                   1009e518 f   FFTW3d:vrank-geq1-rdft2.obj
 0001:000996a8       _applicable0               1009a6a8 f   FFTW3d:vrank-geq1.obj
 0001:00099700       _applicable                1009a700 f   FFTW3d:vrank-geq1.obj
 0001:000997f4       _mkplan                    1009a7f4 f   FFTW3d:vrank-geq1.obj
 0001:000998f8       _mksolver                  1009a8f8 f   FFTW3d:vrank-geq1.obj
 0001:00099484       _applicable                1009a484 f   FFTW3d:rank0.obj
 0001:0012fd1c       _apply_1                   10130d1c f   FFTW3l:rank0.obj
 0001:00096648       _applicable_1              10097648 f   FFTW3d:rank0.obj
 0001:000994c8       _apply_vec                 1009a4c8 f   FFTW3d:rank0.obj
 0001:000995b0       _applicable_vec            1009a5b0 f   FFTW3d:rank0.obj
 0001:0012fd2c       _apply_io1                 10130d2c f   FFTW3l:rank0.obj
 0001:000995d0       _applicable_io1            1009a5d0 f   FFTW3d:rank0.obj
 0001:000051b0       _print                     100061b0 f   FFTW3f:rank0.obj
 0001:00099604       _mkplan                    1009a604 f   FFTW3d:rank0.obj
 0001:00099668       _mksolver                  1009a668 f   FFTW3d:rank0.obj
 0001:0009bf58       _apply_before              1009cf58 f   FFTW3d:rank-geq2.obj
 0001:000991d8       _mkcld_before              1009a1d8 f   FFTW3d:indirect.obj
 0001:0012fa38       _apply_after               10130a38 f   FFTW3l:indirect.obj
 0001:0009920c       _mkcld_after               1009a20c f   FFTW3d:indirect.obj
 0001:0009ff58       _destroy                   100a0f58 f   FFTW3d:rodft00e-r2hc-pad.obj
 0001:0000d5f4       _awake                     1000e5f4 f   FFTW3f:rank-geq2-rdft2.obj
 0001:00004cc8       _print                     10005cc8 f   FFTW3f:indirect.obj
 0001:00099240       _applicable0               1009a240 f   FFTW3d:indirect.obj
 0001:00099330       _applicable                1009a330 f   FFTW3d:indirect.obj
 0001:0009936c       _mkplan                    1009a36c f   FFTW3d:indirect.obj
 0001:00099444       _mksolver                  1009a444 f   FFTW3d:indirect.obj
 0001:0000c108       _apply                     1000d108 f   FFTW3f:nop2.obj
 0001:000990c0       _applicable                1009a0c0 f   FFTW3d:nop.obj
 0001:0009911c       _print                     1009a11c f   FFTW3d:nop.obj
 0001:0009912c       _mkplan                    1009a12c f   FFTW3d:nop.obj
 0001:00099168       _mksolver                  1009a168 f   FFTW3d:nop.obj
 0001:00098284       _apply_aux                 10099284 f   FFTW3d:rader.obj
 0001:0009851c       _apply                     1009951c f   FFTW3d:rader.obj
 0001:00098748       _apply_dit                 10099748 f   FFTW3d:rader.obj
 0001:00098944       _mktwiddle                 10099944 f   FFTW3d:rader.obj
 0001:00098aa8       _free_twiddle              10099aa8 f   FFTW3d:rader.obj
 0001:00098abc       _awake                     10099abc f   FFTW3d:rader.obj
 0001:00098b0c       _awake_dit                 10099b0c f   FFTW3d:rader.obj
 0001:0009d188       _destroy                   1009e188 f   FFTW3d:dht-rader.obj
 0001:00098b5c       _destroy_dit               10099b5c f   FFTW3d:rader.obj
 0001:0000756c       _print_aux                 1000856c f   FFTW3f:rader.obj
 0001:00098b74       _print                     10099b74 f   FFTW3d:rader.obj
 0001:00098b94       _print_dit                 10099b94 f   FFTW3d:rader.obj
 0001:00098bbc       _applicable0               10099bbc f   FFTW3d:rader.obj
 0001:00098c00       _applicable0_dit           10099c00 f   FFTW3d:rader.obj
 0001:00098c3c       _applicable                10099c3c f   FFTW3d:rader.obj
 0001:00098c6c       _applicable_dit            10099c6c f   FFTW3d:rader.obj
 0001:00098c9c       _mkP                       10099c9c f   FFTW3d:rader.obj
 0001:00098eb8       _mkplan                    10099eb8 f   FFTW3d:rader.obj
 0001:00098f34       _mkplan_dit                10099f34 f   FFTW3d:rader.obj
 0001:00099078       _mksolver                  1009a078 f   FFTW3d:rader.obj
 0001:00099088       _mksolver_dit              1009a088 f   FFTW3d:rader.obj
 0001:00097d8c       _apply                     10098d8c f   FFTW3d:generic.obj
 0001:00098070       _awake                     10099070 f   FFTW3d:generic.obj
 0001:0009c5e0       _destroy                   1009d5e0 f   FFTW3d:rdft-dht.obj
 0001:0012ebac       _print                     1012fbac f   FFTW3l:generic.obj
 0001:000980a8       _applicable0               100990a8 f   FFTW3d:generic.obj
 0001:000980e4       _applicable                100990e4 f   FFTW3d:generic.obj
 0001:00098130       _mkplan                    10099130 f   FFTW3d:generic.obj
 0001:00098260       _mksolver                  10099260 f   FFTW3d:generic.obj
 0001:000976f0       _apply                     100986f0 f   FFTW3d:buffered.obj
 0001:0013028c       _awake                     1013128c f   FFTW3l:buffered.obj
 0001:00097828       _destroy                   10098828 f   FFTW3d:buffered.obj
 0001:0012e3a8       _print                     1012f3a8 f   FFTW3l:buffered.obj
 0001:0000d14c       _compute_nbuf              1000e14c f   FFTW3f:buffered2.obj
 0001:0000857c       _toobig                    1000957c f   FFTW3f:buffered.obj
 0001:0009784c       _applicable0               1009884c f   FFTW3d:buffered.obj
 0001:00097908       _applicable                10098908 f   FFTW3d:buffered.obj
 0001:00097974       _mkplan                    10098974 f   FFTW3d:buffered.obj
 0001:00097d5c       _mksolver                  10098d5c f   FFTW3d:buffered.obj
 0001:000970c8       _t                         100980c8 f   FFTW3d:vrank3-transpose.obj
 0001:000971f4       _apply                     100981f4 f   FFTW3d:vrank3-transpose.obj
 0001:00097218       _apply_general             10098218 f   FFTW3d:vrank3-transpose.obj
 0001:0009727c       _apply_slow                1009827c f   FFTW3d:vrank3-transpose.obj
 0001:00097314       _pickdim                   10098314 f   FFTW3d:vrank3-transpose.obj
 0001:00097418       _applicable0               10098418 f   FFTW3d:vrank3-transpose.obj
 0001:00097474       _applicable                10098474 f   FFTW3d:vrank3-transpose.obj
 0001:0012e060       _print                     1012f060 f   FFTW3l:vrank3-transpose.obj
 0001:00097524       _mkplan                    10098524 f   FFTW3d:vrank3-transpose.obj
 0001:000976cc       _mksolver                  100986cc f   FFTW3d:vrank3-transpose.obj
 0001:0012d9f0       _t                         1012e9f0 f   FFTW3l:vrank2-transpose.obj
 0001:00096e28       _apply                     10097e28 f   FFTW3d:vrank2-transpose.obj
 0001:00096e48       _apply_general             10097e48 f   FFTW3d:vrank2-transpose.obj
 0001:00096e9c       _apply_slow                10097e9c f   FFTW3d:vrank2-transpose.obj
 0001:00096f08       _applicable                10097f08 f   FFTW3d:vrank2-transpose.obj
 0001:00005af0       _print                     10006af0 f   FFTW3f:vrank2-transpose.obj
 0001:00096f90       _mkplan                    10097f90 f   FFTW3d:vrank2-transpose.obj
 0001:000970a4       _mksolver                  100980a4 f   FFTW3d:vrank2-transpose.obj
 0001:0012d678       _apply                     1012e678 f   FFTW3l:vrank-geq1.obj
 0001:0009d504       _awake                     1009e504 f   FFTW3d:vrank-geq1-rdft2.obj
 0001:0009c5e0       _destroy                   1009d5e0 f   FFTW3d:rdft-dht.obj
 0001:0012d750       _print                     1012e750 f   FFTW3l:vrank-geq1.obj
 0001:0009d518       _pickdim                   1009e518 f   FFTW3d:vrank-geq1-rdft2.obj
 0001:00096b7c       _applicable0               10097b7c f   FFTW3d:vrank-geq1.obj
 0001:00096bd4       _applicable                10097bd4 f   FFTW3d:vrank-geq1.obj
 0001:00096ca4       _mkplan                    10097ca4 f   FFTW3d:vrank-geq1.obj
 0001:00096dd0       _mksolver                  10097dd0 f   FFTW3d:vrank-geq1.obj
 0001:00005274       _apply                     10006274 f   FFTW3f:rank-geq2.obj
 0001:0000d5f4       _awake                     1000e5f4 f   FFTW3f:rank-geq2-rdft2.obj
 0001:0009ff58       _destroy                   100a0f58 f   FFTW3d:rodft00e-r2hc-pad.obj
 0001:0012d3b4       _print                     1012e3b4 f   FFTW3l:rank-geq2.obj
 0001:000968d8       _picksplit                 100978d8 f   FFTW3d:rank-geq2.obj
 0001:00096918       _applicable0               10097918 f   FFTW3d:rank-geq2.obj
 0001:0009695c       _applicable                1009795c f   FFTW3d:rank-geq2.obj
 0001:000969cc       _mkplan                    100979cc f   FFTW3d:rank-geq2.obj
 0001:00096b24       _mksolver                  10097b24 f   FFTW3d:rank-geq2.obj
 0001:000965e8       _applicable                100975e8 f   FFTW3d:rank0.obj
 0001:0009662c       _apply_1                   1009762c f   FFTW3d:rank0.obj
 0001:00096648       _applicable_1              10097648 f   FFTW3d:rank0.obj
 0001:0009665c       _apply_vec                 1009765c f   FFTW3d:rank0.obj
 0001:0012d1f4       _applicable_vec            1012e1f4 f   FFTW3l:rank0.obj
 0001:00096748       _apply_io1                 10097748 f   FFTW3d:rank0.obj
 0001:00096770       _applicable_io1            10097770 f   FFTW3d:rank0.obj
 0001:0012d248       _apply_io2r                1012e248 f   FFTW3l:rank0.obj
 0001:000967a4       _applicable_io2r           100977a4 f   FFTW3d:rank0.obj
 0001:0012d2ac       _apply_io2i                1012e2ac f   FFTW3l:rank0.obj
 0001:000967ec       _applicable_io2i           100977ec f   FFTW3d:rank0.obj
 0001:000051b0       _print                     100061b0 f   FFTW3f:rank0.obj
 0001:00096834       _mkplan                    10097834 f   FFTW3d:rank0.obj
 0001:00096898       _mksolver                  10097898 f   FFTW3d:rank0.obj
 0001:00005274       _apply_before              10006274 f   FFTW3f:rank-geq2.obj
 0001:00096338       _mkcld_before              10097338 f   FFTW3d:indirect.obj
 0001:0012cf00       _apply_after               1012df00 f   FFTW3l:indirect.obj
 0001:0009636c       _mkcld_after               1009736c f   FFTW3d:indirect.obj
 0001:0009ff58       _destroy                   100a0f58 f   FFTW3d:rodft00e-r2hc-pad.obj
 0001:0000d5f4       _awake                     1000e5f4 f   FFTW3f:rank-geq2-rdft2.obj
 0001:00004cc8       _print                     10005cc8 f   FFTW3f:indirect.obj
 0001:000963a0       _applicable0               100973a0 f   FFTW3d:indirect.obj
 0001:00096490       _applicable                10097490 f   FFTW3d:indirect.obj
 0001:000964cc       _mkplan                    100974cc f   FFTW3d:indirect.obj
 0001:000965a8       _mksolver                  100975a8 f   FFTW3d:indirect.obj
 0001:00096170       _measure                   10097170 f   FFTW3d:timer.obj
 0001:00004bc4       _getticks                  10005bc4 f   FFTW3f:timer.obj
 0001:00095fe0       _get_prime_factors         10096fe0 f   FFTW3d:primes.obj
 0001:00095b64       _doblock                   10096b64 f   FFTW3d:md5.obj
 0001:0009591c       _strides_contig            1009691c f   FFTW3d:tensor7.obj
 0001:000955f8       _recur                     100965f8 f   FFTW3d:zero.obj
 0001:0012c0c0       _dimcpy                    1012d0c0 f   FFTW3l:tensor5.obj
 0001:00003b0c       _rowmajor_kosherp          10004b0c f   FFTW3f:mktensor-rowmajor.obj
 0001:00003800       _iodims_kosherp            10004800 f   FFTW3f:mktensor-iodims.obj
 0001:00094bc8       _mygetc                    10095bc8 f   FFTW3d:scan.obj
 0001:0012b830       _myungetc                  1012c830 f   FFTW3l:scan.obj
 0001:00094be4       _eat_blanks                10095be4 f   FFTW3d:scan.obj
 0001:00094c18       _mygets                    10095c18 f   FFTW3d:scan.obj
 0001:00094c98       _getlong                   10095c98 f   FFTW3d:scan.obj
 0001:00094d54       _vscan                     10095d54 f   FFTW3d:scan.obj
 0001:00094ed0       _scan                      10095ed0 f   FFTW3d:scan.obj
 0001:0012b5f0       _map_flags                 1012c5f0 f   FFTW3l:mapflags.obj
 0001:0012a820       _addmod                    1012b820 f   FFTW3l:planner.obj
 0001:00093d30       _sgrow                     10094d30 f   FFTW3d:planner.obj
 0001:00093e4c       _register_solver           10094e4c f   FFTW3d:planner.obj
 0001:0012a9b0       _slookup                   1012b9b0 f   FFTW3l:planner.obj
 0001:00093eac       _h1                        10094eac f   FFTW3d:planner.obj
 0001:0012aa64       _h2                        1012ba64 f   FFTW3l:planner.obj
 0001:00093ec0       _md5hash                   10094ec0 f   FFTW3d:planner.obj
 0001:000025f8       _md5eq                     100035f8 f   FFTW3f:planner.obj
 0001:0012aac0       _sigcpy                    1012bac0 f   FFTW3l:planner.obj
 0001:00093f00       _hlookup                   10094f00 f   FFTW3d:planner.obj
 0001:00093fc4       _hinsert0                  10094fc4 f   FFTW3d:planner.obj
 0001:00094048       _rehash                    10095048 f   FFTW3d:planner.obj
 0001:00094144       _minsz                     10095144 f   FFTW3d:planner.obj
 0001:00094154       _nextsz                    10095154 f   FFTW3d:planner.obj
 0001:00094168       _hgrow                     10095168 f   FFTW3d:planner.obj
 0001:00094190       _hshrink                   10095190 f   FFTW3d:planner.obj
 0001:0012ad7c       _merge_flags               1012bd7c f   FFTW3l:planner.obj
 0001:000941ac       _hinsert                   100951ac f   FFTW3d:planner.obj
 0001:00094238       _hcurse_subsumed           10095238 f   FFTW3d:planner.obj
 0001:0012af3c       _invoke_hook               1012bf3c f   FFTW3l:planner.obj
 0001:0009434c       _evaluate_plan             1009534c f   FFTW3d:planner.obj
 0001:00002af4       _invoke_solver             10003af4 f   FFTW3f:planner.obj
 0001:000943dc       _search                    100953dc f   FFTW3d:planner.obj
 0001:0009453c       _mkplan                    1009553c f   FFTW3d:planner.obj
 0001:00094640       _forget                    10095640 f   FFTW3d:planner.obj
 0001:000946cc       _htab_destroy              100956cc f   FFTW3d:planner.obj
 0001:000946f0       _exprt                     100956f0 f   FFTW3d:planner.obj
 0001:000947a0       _imprt                     100957a0 f   FFTW3d:planner.obj
 0001:000936bc       _destroy                   100946bc f   FFTW3d:problem.obj
 0001:000936d8       _kind_hash                 100946d8 f   FFTW3d:problem.obj
 0001:00093720       _hash                      10094720 f   FFTW3d:problem.obj
 0001:00093790       _recur                     10094790 f   FFTW3d:problem.obj
 0001:00093928       _print                     10094928 f   FFTW3d:problem.obj
 0001:00093994       _zero                      10094994 f   FFTW3d:problem.obj
 0001:0012a4d0       _nontrivial                1012b4d0 f   FFTW3l:problem.obj
 0001:000936bc       _destroy                   100946bc f   FFTW3d:problem.obj
 0001:000933dc       _hash                      100943dc f   FFTW3d:problem2.obj
 0001:0009347c       _print                     1009447c f   FFTW3d:problem2.obj
 0001:000934b8       _zero                      100944b8 f   FFTW3d:problem2.obj
 0001:000936bc       _destroy                   100946bc f   FFTW3d:problem.obj
 0001:000931cc       _hash                      100941cc f   FFTW3d:problem.obj
 0001:0009326c       _print                     1009426c f   FFTW3d:problem.obj
 0001:000932c4       _zero                      100942c4 f   FFTW3d:problem.obj
 0001:00001508       _myputs                    10002508 f   FFTW3f:print.obj
 0001:00092e30       _vprint                    10093e30 f   FFTW3d:print.obj
 0001:00093164       _print                     10094164 f   FFTW3d:print.obj
 0001:00128e14       _myflush                   10129e14 f   FFTW3l:mkprinter-file.obj
 0001:00092004       _myputchr                  10093004 f   FFTW3d:mkprinter-file.obj
 0001:00092038       _mycleanup                 10093038 f   FFTW3d:mkprinter-file.obj
 0001:0000063c       _getchr_str                1000163c f   FFTW3f:import-wisdom-from-string.obj
 0001:00091fc0       _mkscanner_str             10092fc0 f   FFTW3d:import-wisdom-from-string.obj
 0001:00091f10       _getchr_file               10092f10 f   FFTW3d:import-wisdom-from-file.obj
 0001:00091f68       _mkscanner_file            10092f68 f   FFTW3d:import-wisdom-from-file.obj
 0001:00000598       _getchr_generic            10001598 f   FFTW3f:import-wisdom.obj
 0001:00091e40       _our_malloc16              10092e40 f   FFTW3d:alloc.obj
 0001:00000514       _our_free16                10001514 f   FFTW3f:alloc.obj
 0001:00000428       _putchr_cnt                10001428 f   FFTW3f:export-wisdom-to-string.obj
 0001:00091d60       _mkprinter_cnt             10092d60 f   FFTW3d:export-wisdom-to-string.obj
 0001:00128bd8       _putchr_str                10129bd8 f   FFTW3l:export-wisdom-to-string.obj
 0001:00091d80       _mkprinter_str             10092d80 f   FFTW3d:export-wisdom-to-string.obj
 0001:00128b40       _putchr_generic            10129b40 f   FFTW3l:export-wisdom.obj
 0001:0019c4cc       _destroy                   1019d4cc f   FFTW3l:hc2hc.obj
 0001:0019c4f0       _awake                     1019d4f0 f   FFTW3l:hc2hc.obj
 0001:0019c578       _print                     1019d578 f   FFTW3l:hc2hc.obj
 0001:0019c28c       _destroy                   1019d28c f   FFTW3l:ct.obj
 0001:0019c29c       _awake                     1019d29c f   FFTW3l:ct.obj
 0001:0019c2d8       _print                     1019d2d8 f   FFTW3l:ct.obj
 0001:0019bf34       _apply                     1019cf34 f   FFTW3l:hc2hc-dit.obj
 0001:0019c038       _applicable0               1019d038 f   FFTW3l:hc2hc-dit.obj
 0001:0019c160       _applicable                1019d160 f   FFTW3l:hc2hc-dit.obj
 0001:0019c1dc       _finish                    1019d1dc f   FFTW3l:hc2hc-dit.obj
 0001:0019c254       _mkplan                    1019d254 f   FFTW3l:hc2hc-dit.obj
 0001:001275ec       _cpy                       101285ec f   FFTW3d:hc2hc-buf.obj
 0001:0019b8a8       _doit                      1019c8a8 f   FFTW3l:hc2hc-buf.obj
 0001:0019b934       _apply_dit                 1019c934 f   FFTW3l:hc2hc-buf.obj
 0001:0019baf8       _apply_dif                 1019caf8 f   FFTW3l:hc2hc-buf.obj
 0001:0019bcc0       _applicable0               1019ccc0 f   FFTW3l:hc2hc-buf.obj
 0001:0019bda8       _applicable                1019cda8 f   FFTW3l:hc2hc-buf.obj
 0001:0019be14       _finish                    1019ce14 f   FFTW3l:hc2hc-buf.obj
 0001:0019bec4       _mkplan_ditbuf             1019cec4 f   FFTW3l:hc2hc-buf.obj
 0001:0019befc       _mkplan_difbuf             1019cefc f   FFTW3l:hc2hc-buf.obj
 0001:00127278       _apply                     10128278 f   FFTW3d:hc2hc-dif.obj
 0001:0019b654       _applicable0               1019c654 f   FFTW3l:hc2hc-dif.obj
 0001:0019b77c       _applicable                1019c77c f   FFTW3l:hc2hc-dif.obj
 0001:0019b7f8       _finish                    1019c7f8 f   FFTW3l:hc2hc-dif.obj
 0001:0019b870       _mkplan                    1019c870 f   FFTW3l:hc2hc-dif.obj
 0001:0019b268       _apply_r2hc                1019c268 f   FFTW3l:direct2.obj
 0001:00126f04       _apply_hc2r                10127f04 f   FFTW3d:direct2.obj
 0001:0000c108       _destroy                   1000d108 f   FFTW3f:nop2.obj
 0001:0019b354       _print                     1019c354 f   FFTW3l:direct2.obj
 0001:0019b384       _applicable                1019c384 f   FFTW3l:direct2.obj
 0001:0019b4bc       _mkplan                    1019c4bc f   FFTW3l:direct2.obj
 0001:0019add0       _apply_r2hc                1019bdd0 f   FFTW3l:direct.obj
 0001:001268ec       _apply_hc2r                101278ec f   FFTW3d:direct.obj
 0001:0019ae04       _apply_r2r                 1019be04 f   FFTW3l:direct.obj
 0001:0000c108       _destroy                   1000d108 f   FFTW3f:nop2.obj
 0001:0019ae28       _print                     1019be28 f   FFTW3l:direct.obj
 0001:00126980       _ioffset                   10127980 f   FFTW3d:direct.obj
 0001:0019ae58       _applicable                1019be58 f   FFTW3l:direct.obj
 0001:0019b02c       _mkplan                    1019c02c f   FFTW3l:direct.obj
 0001:0019a900       _cpy                       1019b900 f   FFTW3l:ct-ditbuf.obj
 0001:0019aa60       _doit                      1019ba60 f   FFTW3l:ct-ditbuf.obj
 0001:0019aae4       _apply                     1019bae4 f   FFTW3l:ct-ditbuf.obj
 0001:0019ac28       _applicable0               1019bc28 f   FFTW3l:ct-ditbuf.obj
 0001:0019acc0       _applicable                1019bcc0 f   FFTW3l:ct-ditbuf.obj
 0001:0019ad2c       _finish                    1019bd2c f   FFTW3l:ct-ditbuf.obj
 0001:0019ad94       _mkplan                    1019bd94 f   FFTW3l:ct-ditbuf.obj
 0001:0019a688       _apply                     1019b688 f   FFTW3l:ct-dit.obj
 0001:0019a724       _applicable0               1019b724 f   FFTW3l:ct-dit.obj
 0001:0019a804       _applicable                1019b804 f   FFTW3l:ct-dit.obj
 0001:0019a880       _finish                    1019b880 f   FFTW3l:ct-dit.obj
 0001:0019a8c4       _mkplan                    1019b8c4 f   FFTW3l:ct-dit.obj
 0001:0008ef58       _apply                     1008ff58 f   FFTW3f:direct.obj
 0001:0000c108       _destroy                   1000d108 f   FFTW3f:nop2.obj
 0001:0019a4d8       _print                     1019b4d8 f   FFTW3l:direct.obj
 0001:0019a4fc       _applicable                1019b4fc f   FFTW3l:direct.obj
 0001:0019a5d4       _mkplan                    1019b5d4 f   FFTW3l:direct.obj
 0001:0019a320       _apply                     1019b320 f   FFTW3l:ct-ditf.obj
 0001:0019a358       _applicable                1019b358 f   FFTW3l:ct-ditf.obj
 0001:0019a400       _finish                    1019b400 f   FFTW3l:ct-ditf.obj
 0001:0019a444       _mkcld                     1019b444 f   FFTW3l:ct-ditf.obj
 0001:0019a49c       _mkplan                    1019b49c f   FFTW3l:ct-ditf.obj
 0001:0019a258       _okp                       1019b258 f   FFTW3l:r2hc.obj
 0001:0008ed5c       _okp                       1008fd5c f   FFTW3f:hfb.obj
 0001:00125e08       _okp                       10126e08 f   FFTW3d:hc2r.obj
 0001:0019a180       _okp                       1019b180 f   FFTW3l:r2r.obj
 0001:00125da8       _okp                       10126da8 f   FFTW3d:n.obj
 0001:0008ed5c       _okp                       1008fd5c f   FFTW3f:hfb.obj
 0001:0019808c       _mr2hcII_64_0              1019908c f   FFTW3l:mr2hcII_64.obj
 0001:00199fbc       _mr2hcII_64                1019afbc f   FFTW3l:mr2hcII_64.obj
 0001:00197428       _mr2hcII_32_0              10198428 f   FFTW3l:mr2hcII_32.obj
 0001:00198000       _mr2hcII_32                10199000 f   FFTW3l:mr2hcII_32.obj
 0001:001965a0       _r2hcII_32                 101975a0 f   FFTW3l:r2hcII_32.obj
 0001:00196008       _r2hcII_16                 10197008 f   FFTW3l:r2hcII_16.obj
 0001:00195a70       _r2hcII_15                 10196a70 f   FFTW3l:r2hcII_15.obj
 0001:001956ec       _r2hcII_12                 101966ec f   FFTW3l:r2hcII_12.obj
 0001:00195424       _r2hcII_10                 10196424 f   FFTW3l:r2hcII_10.obj
 0001:00195090       _r2hcII_9                  10196090 f   FFTW3l:r2hcII_9.obj
 0001:00194e58       _r2hcII_8                  10195e58 f   FFTW3l:r2hcII_8.obj
 0001:00194c4c       _r2hcII_7                  10195c4c f   FFTW3l:r2hcII_7.obj
 0001:00194af8       _r2hcII_6                  10195af8 f   FFTW3l:r2hcII_6.obj
 0001:001949d0       _r2hcII_5                  101959d0 f   FFTW3l:r2hcII_5.obj
 0001:00194900       _r2hcII_4                  10195900 f   FFTW3l:r2hcII_4.obj
 0001:0019485c       _r2hcII_3                  1019585c f   FFTW3l:r2hcII_3.obj
 0001:0019477c       _r2hcII_2                  1019577c f   FFTW3l:r2hcII_2.obj
 0001:0018f1bc       _hf2_64                    101901bc f   FFTW3l:hf2_64.obj
 0001:0018cc38       _hf2_32                    1018dc38 f   FFTW3l:hf2_32.obj
 0001:0018bd48       _hf2_16                    1018cd48 f   FFTW3l:hf2_16.obj
 0001:0018b798       _hf2_8                     1018c798 f   FFTW3l:hf2_8.obj
 0001:0018b59c       _hf2_4                     1018c59c f   FFTW3l:hf2_4.obj
 0001:00187040       _hf_64                     10188040 f   FFTW3l:hf_64.obj
 0001:00185244       _hf_32                     10186244 f   FFTW3l:hf_32.obj
 0001:001845d8       _hf_16                     101855d8 f   FFTW3l:hf_16.obj
 0001:00183890       _hf_15                     10184890 f   FFTW3l:hf_15.obj
 0001:00183050       _hf_12                     10184050 f   FFTW3l:hf_12.obj
 0001:00182884       _hf_10                     10183884 f   FFTW3l:hf_10.obj
 0001:00182150       _hf_9                      10183150 f   FFTW3l:hf_9.obj
 0001:00181cb4       _hf_8                      10182cb4 f   FFTW3l:hf_8.obj
 0001:00181788       _hf_7                      10182788 f   FFTW3l:hf_7.obj
 0001:00181428       _hf_6                      10182428 f   FFTW3l:hf_6.obj
 0001:001810e4       _hf_5                      101820e4 f   FFTW3l:hf_5.obj
 0001:00180f04       _hf_4                      10181f04 f   FFTW3l:hf_4.obj
 0001:00180d80       _hf_3                      10181d80 f   FFTW3l:hf_3.obj
 0001:00180cb0       _hf_2                      10181cb0 f   FFTW3l:hf_2.obj
 0001:0017c9f4       _mr2hc_128_0               1017d9f4 f   FFTW3l:mr2hc_128.obj
 0001:00180c24       _mr2hc_128                 10181c24 f   FFTW3l:mr2hc_128.obj
 0001:0017aec4       _mr2hc_64_0                1017bec4 f   FFTW3l:mr2hc_64.obj
 0001:0017c968       _mr2hc_64                  1017d968 f   FFTW3l:mr2hc_64.obj
 0001:0017a4e4       _mr2hc_32_0                1017b4e4 f   FFTW3l:mr2hc_32.obj
 0001:0017ae38       _mr2hc_32                  1017be38 f   FFTW3l:mr2hc_32.obj
 0001:00179888       _r2hc_32                   1017a888 f   FFTW3l:r2hc_32.obj
 0001:00179358       _r2hc_16                   1017a358 f   FFTW3l:r2hc_16.obj
 0001:00178de4       _r2hc_15                   10179de4 f   FFTW3l:r2hc_15.obj
 0001:001788e0       _r2hc_14                   101798e0 f   FFTW3l:r2hc_14.obj
 0001:00178380       _r2hc_13                   10179380 f   FFTW3l:r2hc_13.obj
 0001:0017803c       _r2hc_12                   1017903c f   FFTW3l:r2hc_12.obj
 0001:00177bd4       _r2hc_11                   10178bd4 f   FFTW3l:r2hc_11.obj
 0001:00177900       _r2hc_10                   10178900 f   FFTW3l:r2hc_10.obj
 0001:001775ac       _r2hc_9                    101785ac f   FFTW3l:r2hc_9.obj
 0001:001773c4       _r2hc_8                    101783c4 f   FFTW3l:r2hc_8.obj
 0001:00177194       _r2hc_7                    10178194 f   FFTW3l:r2hc_7.obj
 0001:0017704c       _r2hc_6                    1017804c f   FFTW3l:r2hc_6.obj
 0001:00176f14       _r2hc_5                    10177f14 f   FFTW3l:r2hc_5.obj
 0001:00176e44       _r2hc_4                    10177e44 f   FFTW3l:r2hc_4.obj
 0001:00176d98       _r2hc_3                    10177d98 f   FFTW3l:r2hc_3.obj
 0001:00176c64       _r2hc_2                    10177c64 f   FFTW3l:r2hc_2.obj
 0001:00174d98       _mhc2rIII_64_0             10175d98 f   FFTW3l:mhc2rIII_64.obj
 0001:00176bd8       _mhc2rIII_64               10177bd8 f   FFTW3l:mhc2rIII_64.obj
 0001:00174278       _mhc2rIII_32_0             10175278 f   FFTW3l:mhc2rIII_32.obj
 0001:00174d0c       _mhc2rIII_32               10175d0c f   FFTW3l:mhc2rIII_32.obj
 0001:001734c4       _hc2rIII_32                101744c4 f   FFTW3l:hc2rIII_32.obj
 0001:00172f00       _hc2rIII_16                10173f00 f   FFTW3l:hc2rIII_16.obj
 0001:001729d0       _hc2rIII_15                101739d0 f   FFTW3l:hc2rIII_15.obj
 0001:00172630       _hc2rIII_12                10173630 f   FFTW3l:hc2rIII_12.obj
 0001:00172354       _hc2rIII_10                10173354 f   FFTW3l:hc2rIII_10.obj
 0001:001720a0       _hc2rIII_9                 101730a0 f   FFTW3l:hc2rIII_9.obj
 0001:00171e70       _hc2rIII_8                 10172e70 f   FFTW3l:hc2rIII_8.obj
 0001:00171c1c       _hc2rIII_7                 10172c1c f   FFTW3l:hc2rIII_7.obj
 0001:00171ad0       _hc2rIII_6                 10172ad0 f   FFTW3l:hc2rIII_6.obj
 0001:00171994       _hc2rIII_5                 10172994 f   FFTW3l:hc2rIII_5.obj
 0001:001718b4       _hc2rIII_4                 101728b4 f   FFTW3l:hc2rIII_4.obj
 0001:0017180c       _hc2rIII_3                 1017280c f   FFTW3l:hc2rIII_3.obj
 0001:00171704       _hc2rIII_2                 10172704 f   FFTW3l:hc2rIII_2.obj
 0001:0016d0e4       _hb_64                     1016e0e4 f   FFTW3l:hb_64.obj
 0001:0016b22c       _hb_32                     1016c22c f   FFTW3l:hb_32.obj
 0001:0016a6a8       _hb_16                     1016b6a8 f   FFTW3l:hb_16.obj
 0001:001698dc       _hb_15                     1016a8dc f   FFTW3l:hb_15.obj
 0001:001690c0       _hb_12                     1016a0c0 f   FFTW3l:hb_12.obj
 0001:00168938       _hb_10                     10169938 f   FFTW3l:hb_10.obj
 0001:001681a4       _hb_9                      101691a4 f   FFTW3l:hb_9.obj
 0001:00167cc0       _hb_8                      10168cc0 f   FFTW3l:hb_8.obj
 0001:0016770c       _hb_7                      1016870c f   FFTW3l:hb_7.obj
 0001:001673ac       _hb_6                      101683ac f   FFTW3l:hb_6.obj
 0001:001670b0       _hb_5                      101680b0 f   FFTW3l:hb_5.obj
 0001:00166eb4       _hb_4                      10167eb4 f   FFTW3l:hb_4.obj
 0001:00166d28       _hb_3                      10167d28 f   FFTW3l:hb_3.obj
 0001:00166c54       _hb_2                      10167c54 f   FFTW3l:hb_2.obj
 0001:00162b10       _mhc2r_128_0               10163b10 f   FFTW3l:mhc2r_128.obj
 0001:00166bc8       _mhc2r_128                 10167bc8 f   FFTW3l:mhc2r_128.obj
 0001:00161068       _mhc2r_64_0                10162068 f   FFTW3l:mhc2r_64.obj
 0001:00162a84       _mhc2r_64                  10163a84 f   FFTW3l:mhc2r_64.obj
 0001:00160678       _mhc2r_32_0                10161678 f   FFTW3l:mhc2r_32.obj
 0001:00160fdc       _mhc2r_32                  10161fdc f   FFTW3l:mhc2r_32.obj
 0001:0015fa10       _hc2r_32                   10160a10 f   FFTW3l:hc2r_32.obj
 0001:0015f500       _hc2r_16                   10160500 f   FFTW3l:hc2r_16.obj
 0001:0015ef64       _hc2r_15                   1015ff64 f   FFTW3l:hc2r_15.obj
 0001:0015ea08       _hc2r_14                   1015fa08 f   FFTW3l:hc2r_14.obj
 0001:0015e458       _hc2r_13                   1015f458 f   FFTW3l:hc2r_13.obj
 0001:0015e110       _hc2r_12                   1015f110 f   FFTW3l:hc2r_12.obj
 0001:0015dbdc       _hc2r_11                   1015ebdc f   FFTW3l:hc2r_11.obj
 0001:0015d904       _hc2r_10                   1015e904 f   FFTW3l:hc2r_10.obj
 0001:0015d644       _hc2r_9                    1015e644 f   FFTW3l:hc2r_9.obj
 0001:0015d454       _hc2r_8                    1015e454 f   FFTW3l:hc2r_8.obj
 0001:0015d1f0       _hc2r_7                    1015e1f0 f   FFTW3l:hc2r_7.obj
 0001:0015d0a4       _hc2r_6                    1015e0a4 f   FFTW3l:hc2r_6.obj
 0001:0015cf58       _hc2r_5                    1015df58 f   FFTW3l:hc2r_5.obj
 0001:0015ce78       _hc2r_4                    1015de78 f   FFTW3l:hc2r_4.obj
 0001:0015cdcc       _hc2r_3                    1015ddcc f   FFTW3l:hc2r_3.obj
 0001:0015cba8       _e10_8_0                   1015dba8 f   FFTW3l:e10_8.obj
 0001:0015cd4c       _e10_8                     1015dd4c f   FFTW3l:e10_8.obj
 0001:0015c994       _e01_8_0                   1015d994 f   FFTW3l:e01_8.obj
 0001:0015cb28       _e01_8                     1015db28 f   FFTW3l:e01_8.obj
 0001:001577f0       _t2_64                     101587f0 f   FFTW3l:t2_64.obj
 0001:00155558       _t2_32                     10156558 f   FFTW3l:t2_32.obj
 0001:00154858       _t2_16                     10155858 f   FFTW3l:t2_16.obj
 0001:00154310       _t2_8                      10155310 f   FFTW3l:t2_8.obj
 0001:00154168       _t2_4                      10155168 f   FFTW3l:t2_4.obj
 0001:0015024c       _t1_64                     1015124c f   FFTW3l:t1_64.obj
 0001:0014e760       _t1_32                     1014f760 f   FFTW3l:t1_32.obj
 0001:0014dc44       _t1_16                     1014ec44 f   FFTW3l:t1_16.obj
 0001:0014d030       _t1_15                     1014e030 f   FFTW3l:t1_15.obj
 0001:0014c8dc       _t1_12                     1014d8dc f   FFTW3l:t1_12.obj
 0001:0014c1e8       _t1_10                     1014d1e8 f   FFTW3l:t1_10.obj
 0001:0014bb9c       _t1_9                      1014cb9c f   FFTW3l:t1_9.obj
 0001:0014b7a0       _t1_8                      1014c7a0 f   FFTW3l:t1_8.obj
 0001:0014b32c       _t1_7                      1014c32c f   FFTW3l:t1_7.obj
 0001:0014b050       _t1_6                      1014c050 f   FFTW3l:t1_6.obj
 0001:0014ad98       _t1_5                      1014bd98 f   FFTW3l:t1_5.obj
 0001:0014abf8       _t1_4                      1014bbf8 f   FFTW3l:t1_4.obj
 0001:0014aac8       _t1_3                      1014bac8 f   FFTW3l:t1_3.obj
 0001:0014aa20       _t1_2                      1014ba20 f   FFTW3l:t1_2.obj
 0001:001471d8       _m1_64_0                   101481d8 f   FFTW3l:m1_64.obj
 0001:0014a98c       _m1_64                     1014b98c f   FFTW3l:m1_64.obj
 0001:00145ec4       _m1_32_0                   10146ec4 f   FFTW3l:m1_32.obj
 0001:00147144       _m1_32                     10148144 f   FFTW3l:m1_32.obj
 0001:00145698       _m1_16_0                   10146698 f   FFTW3l:m1_16.obj
 0001:00145e30       _m1_16                     10146e30 f   FFTW3l:m1_16.obj
 0001:00144d0c       _n1_16                     10145d0c f   FFTW3l:n1_16.obj
 0001:001441fc       _n1_15                     101451fc f   FFTW3l:n1_15.obj
 0001:00143898       _n1_14                     10144898 f   FFTW3l:n1_14.obj
 0001:00142d64       _n1_13                     10143d64 f   FFTW3l:n1_13.obj
 0001:00142764       _n1_12                     10143764 f   FFTW3l:n1_12.obj
 0001:00141df8       _n1_11                     10142df8 f   FFTW3l:n1_11.obj
 0001:00141838       _n1_10                     10142838 f   FFTW3l:n1_10.obj
 0001:001412a0       _n1_9                      101422a0 f   FFTW3l:n1_9.obj
 0001:00140f1c       _n1_8                      10141f1c f   FFTW3l:n1_8.obj
 0001:00140ae0       _n1_7                      10141ae0 f   FFTW3l:n1_7.obj
 0001:0014085c       _n1_6                      1014185c f   FFTW3l:n1_6.obj
 0001:00140604       _n1_5                      10141604 f   FFTW3l:n1_5.obj
 0001:001404b8       _n1_4                      101414b8 f   FFTW3l:n1_4.obj
 0001:001403a4       _n1_3                      101413a4 f   FFTW3l:n1_3.obj
 0001:001402fc       _n1_2                      101412fc f   FFTW3l:n1_2.obj
 0001:0013f068       _q1_6                      10140068 f   FFTW3l:q1_6.obj
 0001:0013e278       _q1_5                      1013f278 f   FFTW3l:q1_5.obj
 0001:0013de5c       _q1_3                      1013ee5c f   FFTW3l:q1_3.obj
 0001:0013bb88       _q1_8                      1013cb88 f   FFTW3l:q1_8.obj
 0001:0013b488       _q1_4                      1013c488 f   FFTW3l:q1_4.obj
 0001:0013b340       _q1_2                      1013c340 f   FFTW3l:q1_2.obj
 0001:00012b88       _equal_instr               10013b88 f   FFTW3f:twiddle.obj
 0001:0013ad38       _ok_twid                   1013bd38 f   FFTW3l:twiddle.obj
 0001:0013ad78       _lookup                    1013bd78 f   FFTW3l:twiddle.obj
 0001:0013adcc       _twlen0                    1013bdcc f   FFTW3l:twiddle.obj
 0001:0013ae20       _compute                   1013be20 f   FFTW3l:twiddle.obj
 0001:000a32b8       _Ntuple_transposable       100a42b8 f   FFTW3d:transpose.obj
 0001:00139dd0       _gcd                       1013add0 f   FFTW3l:transpose.obj
 0001:00139ecc       _rec_transpose_Ntuple      1013aecc f   FFTW3l:transpose.obj
 0001:0013a10c       _rec_transpose_swap_Ntuple 1013b10c f   FFTW3l:transpose.obj
 0001:0013a4dc       _rec_transpose_sq_ip_Ntuple 1013b4dc f   FFTW3l:transpose.obj
 0001:00139bcc       _really_pickdim            1013abcc f   FFTW3l:pickdim.obj
 0001:00138560       _apply_re11                10139560 f   FFTW3l:reodft11e-r2hc-odd.obj
 0001:00138f10       _apply_ro11                10139f10 f   FFTW3l:reodft11e-r2hc-odd.obj
 0001:0009d504       _awake                     1009e504 f   FFTW3d:vrank-geq1-rdft2.obj
 0001:0012d740       _destroy                   1012e740 f   FFTW3l:vrank-geq1.obj
 0001:00139908       _print                     1013a908 f   FFTW3l:reodft11e-r2hc-odd.obj
 0001:00139930       _applicable0               1013a930 f   FFTW3l:reodft11e-r2hc-odd.obj
 0001:00139984       _applicable                1013a984 f   FFTW3l:reodft11e-r2hc-odd.obj
 0001:001399b4       _mkplan                    1013a9b4 f   FFTW3l:reodft11e-r2hc-odd.obj
 0001:00139af0       _mksolver                  1013aaf0 f   FFTW3l:reodft11e-r2hc-odd.obj
 0001:00137974       _apply_re11                10138974 f   FFTW3l:reodft11e-radix2.obj
 0001:00137dec       _apply_ro11                10138dec f   FFTW3l:reodft11e-radix2.obj
 0001:00138260       _awake                     10139260 f   FFTW3l:reodft11e-radix2.obj
 0001:0012d740       _destroy                   1012e740 f   FFTW3l:vrank-geq1.obj
 0001:001382c0       _print                     101392c0 f   FFTW3l:reodft11e-radix2.obj
 0001:001382e8       _applicable0               101392e8 f   FFTW3l:reodft11e-radix2.obj
 0001:00138334       _applicable                10139334 f   FFTW3l:reodft11e-radix2.obj
 0001:00138364       _mkplan                    10139364 f   FFTW3l:reodft11e-radix2.obj
 0001:0013853c       _mksolver                  1013953c f   FFTW3l:reodft11e-radix2.obj
 0001:00136be8       _apply_re01                10137be8 f   FFTW3l:reodft010e-r2hc.obj
 0001:00136e64       _apply_ro01                10137e64 f   FFTW3l:reodft010e-r2hc.obj
 0001:00137110       _apply_re10                10138110 f   FFTW3l:reodft010e-r2hc.obj
 0001:00137394       _apply_ro10                10138394 f   FFTW3l:reodft010e-r2hc.obj
 0001:00137648       _awake                     10138648 f   FFTW3l:reodft010e-r2hc.obj
 0001:0012d740       _destroy                   1012e740 f   FFTW3l:vrank-geq1.obj
 0001:0013768c       _print                     1013868c f   FFTW3l:reodft010e-r2hc.obj
 0001:001376b4       _applicable0               101386b4 f   FFTW3l:reodft010e-r2hc.obj
 0001:00137700       _applicable                10138700 f   FFTW3l:reodft010e-r2hc.obj
 0001:00137730       _mkplan                    10138730 f   FFTW3l:reodft010e-r2hc.obj
 0001:00137950       _mksolver                  10138950 f   FFTW3l:reodft010e-r2hc.obj
 0001:00136744       _apply                     10137744 f   FFTW3l:rodft00e-r2hc-pad.obj
 0001:0000d5f4       _awake                     1000e5f4 f   FFTW3f:rank-geq2-rdft2.obj
 0001:00134e34       _destroy                   10135e34 f   FFTW3l:buffered2.obj
 0001:0000ea50       _print                     1000fa50 f   FFTW3f:rodft00e-r2hc-pad.obj
 0001:0013699c       _applicable0               1013799c f   FFTW3l:rodft00e-r2hc-pad.obj
 0001:001369d8       _applicable                101379d8 f   FFTW3l:rodft00e-r2hc-pad.obj
 0001:00136a08       _mkplan                    10137a08 f   FFTW3l:rodft00e-r2hc-pad.obj
 0001:00136bc4       _mksolver                  10137bc4 f   FFTW3l:rodft00e-r2hc-pad.obj
 0001:001362c4       _apply                     101372c4 f   FFTW3l:redft00e-r2hc-pad.obj
 0001:0000d5f4       _awake                     1000e5f4 f   FFTW3f:rank-geq2-rdft2.obj
 0001:00134e34       _destroy                   10135e34 f   FFTW3l:buffered2.obj
 0001:001364e4       _print                     101374e4 f   FFTW3l:redft00e-r2hc-pad.obj
 0001:00136508       _applicable0               10137508 f   FFTW3l:redft00e-r2hc-pad.obj
 0001:0013654c       _applicable                1013754c f   FFTW3l:redft00e-r2hc-pad.obj
 0001:0013657c       _mkplan                    1013757c f   FFTW3l:redft00e-r2hc-pad.obj
 0001:00136720       _mksolver                  10137720 f   FFTW3l:redft00e-r2hc-pad.obj
 0001:001357d4       _applicable_f              101367d4 f   FFTW3l:rdft2-radix2.obj
 0001:00135818       _applicable_f_dft          10136818 f   FFTW3l:rdft2-radix2.obj
 0001:00135868       _applicable_b              10136868 f   FFTW3l:rdft2-radix2.obj
 0001:001358c4       _applicable_b_dft          101368c4 f   FFTW3l:rdft2-radix2.obj
 0001:00135914       _k_f_dft                   10136914 f   FFTW3l:rdft2-radix2.obj
 0001:00135a38       _apply_f_dft               10136a38 f   FFTW3l:rdft2-radix2.obj
 0001:00135ae0       _mkcld_f_dft               10136ae0 f   FFTW3l:rdft2-radix2.obj
 0001:00135b38       _k_f_rdft                  10136b38 f   FFTW3l:rdft2-radix2.obj
 0001:00135c34       _apply_f_rdft              10136c34 f   FFTW3l:rdft2-radix2.obj
 0001:00135ccc       _mkcld_f_rdft              10136ccc f   FFTW3l:rdft2-radix2.obj
 0001:00135d38       _k_b_dft                   10136d38 f   FFTW3l:rdft2-radix2.obj
 0001:00135e3c       _apply_b_dft               10136e3c f   FFTW3l:rdft2-radix2.obj
 0001:00135eec       _mkcld_b_dft               10136eec f   FFTW3l:rdft2-radix2.obj
 0001:00135f44       _k_b_rdft                  10136f44 f   FFTW3l:rdft2-radix2.obj
 0001:0013603c       _apply_b_rdft              1013703c f   FFTW3l:rdft2-radix2.obj
 0001:001360dc       _mkcld_b_rdft              101370dc f   FFTW3l:rdft2-radix2.obj
 0001:00136148       _awake                     10137148 f   FFTW3l:rdft2-radix2.obj
 0001:0012d740       _destroy                   1012e740 f   FFTW3l:vrank-geq1.obj
 0001:00136194       _print                     10137194 f   FFTW3l:rdft2-radix2.obj
 0001:001361bc       _mkplan                    101371bc f   FFTW3l:rdft2-radix2.obj
 0001:00136284       _mksolver                  10137284 f   FFTW3l:rdft2-radix2.obj
 0001:0009ea30       _apply_r2hc                1009fa30 f   FFTW3d:rank-geq2-rdft2.obj
 0001:0013545c       _apply_hc2r                1013645c f   FFTW3l:rank-geq2-rdft2.obj
 0001:0000d5f4       _awake                     1000e5f4 f   FFTW3f:rank-geq2-rdft2.obj
 0001:0013548c       _destroy                   1013648c f   FFTW3l:rank-geq2-rdft2.obj
 0001:0009ea7c       _print                     1009fa7c f   FFTW3d:rank-geq2-rdft2.obj
 0001:0012d3d4       _picksplit                 1012e3d4 f   FFTW3l:rank-geq2.obj
 0001:001354a8       _applicable0               101364a8 f   FFTW3l:rank-geq2-rdft2.obj
 0001:00135518       _applicable                10136518 f   FFTW3l:rank-geq2-rdft2.obj
 0001:00135590       _mkplan                    10136590 f   FFTW3l:rank-geq2-rdft2.obj
 0001:0013577c       _mksolver                  1013677c f   FFTW3l:rank-geq2-rdft2.obj
 0001:001344ac       _hc2c                      101354ac f   FFTW3l:buffered2.obj
 0001:001347c8       _c2hc                      101357c8 f   FFTW3l:buffered2.obj
 0001:00134ac4       _apply_r2hc                10135ac4 f   FFTW3l:buffered2.obj
 0001:00134c7c       _apply_hc2r                10135c7c f   FFTW3l:buffered2.obj
 0001:0000d5f4       _awake                     1000e5f4 f   FFTW3f:rank-geq2-rdft2.obj
 0001:00134e34       _destroy                   10135e34 f   FFTW3l:buffered2.obj
 0001:00134e50       _print                     10135e50 f   FFTW3l:buffered2.obj
 0001:00134ea4       _min_nbuf                  10135ea4 f   FFTW3l:buffered2.obj
 0001:0000d14c       _compute_nbuf              1000e14c f   FFTW3f:buffered2.obj
 0001:0000857c       _toobig                    1000957c f   FFTW3f:buffered.obj
 0001:00134fd8       _applicable0               10135fd8 f   FFTW3l:buffered2.obj
 0001:00135030       _applicable                10136030 f   FFTW3l:buffered2.obj
 0001:0013509c       _mkplan                    1013609c f   FFTW3l:buffered2.obj
 0001:0013542c       _mksolver                  1013642c f   FFTW3l:buffered2.obj
 0001:00134018       _applicable                10135018 f   FFTW3l:rank0-rdft2.obj
 0001:00134080       _apply_r2hc                10135080 f   FFTW3l:rank0-rdft2.obj
 0001:00134200       _apply_r2hc_inplace        10135200 f   FFTW3l:rank0-rdft2.obj
 0001:00134364       _apply_hc2r                10135364 f   FFTW3l:rank0-rdft2.obj
 0001:0009dc44       _awake                     1009ec44 f   FFTW3d:rank0-rdft2.obj
 0001:0013437c       _destroy                   1013537c f   FFTW3l:rank0-rdft2.obj
 0001:0000c518       _print                     1000d518 f   FFTW3f:rank0-rdft2.obj
 0001:00134390       _mkplan                    10135390 f   FFTW3l:rank0-rdft2.obj
 0001:00134488       _mksolver                  10135488 f   FFTW3l:rank0-rdft2.obj
 0001:0000c108       _apply                     1000d108 f   FFTW3f:nop2.obj
 0001:00133f48       _applicable                10134f48 f   FFTW3l:nop2.obj
 0001:0009d888       _print                     1009e888 f   FFTW3d:nop2.obj
 0001:00133fb8       _mkplan                    10134fb8 f   FFTW3l:nop2.obj
 0001:00133ff4       _mksolver                  10134ff4 f   FFTW3l:nop2.obj
 0001:00133c0c       _apply                     10134c0c f   FFTW3l:vrank-geq1-rdft2.obj
 0001:0009d504       _awake                     1009e504 f   FFTW3d:vrank-geq1-rdft2.obj
 0001:0012d740       _destroy                   1012e740 f   FFTW3l:vrank-geq1.obj
 0001:0000bde8       _print                     1000cde8 f   FFTW3f:vrank-geq1-rdft2.obj
 0001:0012d770       _pickdim                   1012e770 f   FFTW3l:vrank-geq1.obj
 0001:00133cac       _applicable0               10134cac f   FFTW3l:vrank-geq1-rdft2.obj
 0001:00133d24       _applicable                10134d24 f   FFTW3l:vrank-geq1-rdft2.obj
 0001:00133df8       _mkplan                    10134df8 f   FFTW3l:vrank-geq1-rdft2.obj
 0001:00133ef0       _mksolver                  10134ef0 f   FFTW3l:vrank-geq1-rdft2.obj
 0001:0013311c       _apply                     1013411c f   FFTW3l:dht-rader.obj
 0001:00133784       _mkomega                   10134784 f   FFTW3l:dht-rader.obj
 0001:00133884       _free_omega                10134884 f   FFTW3l:dht-rader.obj
 0001:00133898       _awake                     10134898 f   FFTW3l:dht-rader.obj
 0001:001338f0       _destroy                   101348f0 f   FFTW3l:dht-rader.obj
 0001:0009d1ac       _print                     1009e1ac f   FFTW3d:dht-rader.obj
 0001:00133914       _applicable0               10134914 f   FFTW3l:dht-rader.obj
 0001:0013396c       _applicable                1013496c f   FFTW3l:dht-rader.obj
 0001:00133998       _mkplan                    10134998 f   FFTW3l:dht-rader.obj
 0001:00133be8       _mksolver                  10134be8 f   FFTW3l:dht-rader.obj
 0001:00132f4c       _apply                     10133f4c f   FFTW3l:dht-r2hc.obj
 0001:0009d504       _awake                     1009e504 f   FFTW3d:vrank-geq1-rdft2.obj
 0001:0012d740       _destroy                   1012e740 f   FFTW3l:vrank-geq1.obj
 0001:0009c840       _print                     1009d840 f   FFTW3d:dht-r2hc.obj
 0001:00132fc4       _applicable0               10133fc4 f   FFTW3l:dht-r2hc.obj
 0001:0013300c       _applicable                1013400c f   FFTW3l:dht-r2hc.obj
 0001:00133038       _mkplan                    10134038 f   FFTW3l:dht-r2hc.obj
 0001:001330f8       _mksolver                  101340f8 f   FFTW3l:dht-r2hc.obj
 0001:00132c7c       _apply_r2hc                10133c7c f   FFTW3l:rdft-dht.obj
 0001:0009c478       _apply_hc2r                1009d478 f   FFTW3d:rdft-dht.obj
 0001:0009c4f0       _apply_hc2r_save           1009d4f0 f   FFTW3d:rdft-dht.obj
 0001:0009d504       _awake                     1009e504 f   FFTW3d:vrank-geq1-rdft2.obj
 0001:0012d740       _destroy                   1012e740 f   FFTW3l:vrank-geq1.obj
 0001:00132cfc       _print                     10133cfc f   FFTW3l:rdft-dht.obj
 0001:00132d30       _applicable0               10133d30 f   FFTW3l:rdft-dht.obj
 0001:00132d78       _applicable                10133d78 f   FFTW3l:rdft-dht.obj
 0001:00132da8       _mkplan                    10133da8 f   FFTW3l:rdft-dht.obj
 0001:00132f28       _mksolver                  10133f28 f   FFTW3l:rdft-dht.obj
 0001:001329e0       _apply                     101339e0 f   FFTW3l:dft-r2hc.obj
 0001:0009d504       _awake                     1009e504 f   FFTW3d:vrank-geq1-rdft2.obj
 0001:0012d740       _destroy                   1012e740 f   FFTW3l:vrank-geq1.obj
 0001:00132a88       _print                     10133a88 f   FFTW3l:dft-r2hc.obj
 0001:00132aa4       _applicable0               10133aa4 f   FFTW3l:dft-r2hc.obj
 0001:0009c218       _split                     1009d218 f   FFTW3d:dft-r2hc.obj
 0001:00132ad8       _applicable                10133ad8 f   FFTW3l:dft-r2hc.obj
 0001:00132b6c       _mkplan                    10133b6c f   FFTW3l:dft-r2hc.obj
 0001:00132c58       _mksolver                  10133c58 f   FFTW3l:dft-r2hc.obj
 0001:0009bf58       _apply                     1009cf58 f   FFTW3d:rank-geq2.obj
 0001:0000d5f4       _awake                     1000e5f4 f   FFTW3f:rank-geq2-rdft2.obj
 0001:00134e34       _destroy                   10135e34 f   FFTW3l:buffered2.obj
 0001:0000a768       _print                     1000b768 f   FFTW3f:rank-geq2.obj
 0001:0012d3d4       _picksplit                 1012e3d4 f   FFTW3l:rank-geq2.obj
 0001:0013277c       _applicable0               1013377c f   FFTW3l:rank-geq2.obj
 0001:001327c0       _applicable                101337c0 f   FFTW3l:rank-geq2.obj
 0001:00132830       _mkplan                    10133830 f   FFTW3l:rank-geq2.obj
 0001:00132988       _mksolver                  10133988 f   FFTW3l:rank-geq2.obj
 0001:00131a40       _apply_dit                 10132a40 f   FFTW3l:generic.obj
 0001:00131f38       _apply_dif                 10132f38 f   FFTW3l:generic.obj
 0001:0013242c       _awake                     1013342c f   FFTW3l:generic.obj
 0001:0012d740       _destroy                   1012e740 f   FFTW3l:vrank-geq1.obj
 0001:00132464       _print                     10133464 f   FFTW3l:generic.obj
 0001:00132494       _applicable0               10133494 f   FFTW3l:generic.obj
 0001:001324e4       _applicable                101334e4 f   FFTW3l:generic.obj
 0001:00132538       _mkplan                    10133538 f   FFTW3l:generic.obj
 0001:0013273c       _mksolver                  1013373c f   FFTW3l:generic.obj
 0001:001306d8       _apply_aux                 101316d8 f   FFTW3l:rader-hc2hc.obj
 0001:00130784       _apply_dit                 10131784 f   FFTW3l:rader-hc2hc.obj
 0001:00130d28       _apply_dif                 10131d28 f   FFTW3l:rader-hc2hc.obj
 0001:00131338       _mktwiddle                 10132338 f   FFTW3l:rader-hc2hc.obj
 0001:001314b0       _free_twiddle              101324b0 f   FFTW3l:rader-hc2hc.obj
 0001:001314c4       _awake                     101324c4 f   FFTW3l:rader-hc2hc.obj
 0001:0013154c       _destroy                   1013254c f   FFTW3l:rader-hc2hc.obj
 0001:00131570       _print                     10132570 f   FFTW3l:rader-hc2hc.obj
 0001:001315a4       _applicable0               101325a4 f   FFTW3l:rader-hc2hc.obj
 0001:00131600       _applicable                10132600 f   FFTW3l:rader-hc2hc.obj
 0001:00131630       _mkP                       10132630 f   FFTW3l:rader-hc2hc.obj
 0001:00131794       _mkplan_dit                10132794 f   FFTW3l:rader-hc2hc.obj
 0001:001318c0       _mkplan_dif                101328c0 f   FFTW3l:rader-hc2hc.obj
 0001:001319e8       _mksolver_dit              101329e8 f   FFTW3l:rader-hc2hc.obj
 0001:00131a00       _mksolver_dif              10132a00 f   FFTW3l:rader-hc2hc.obj
 0001:001301d4       _apply                     101311d4 f   FFTW3l:buffered.obj
 0001:0013028c       _awake                     1013128c f   FFTW3l:buffered.obj
 0001:0012e384       _destroy                   1012f384 f   FFTW3l:buffered.obj
 0001:00099ad4       _print                     1009aad4 f   FFTW3d:buffered.obj
 0001:0000d14c       _compute_nbuf              1000e14c f   FFTW3f:buffered2.obj
 0001:0000857c       _toobig                    1000957c f   FFTW3f:buffered.obj
 0001:001302b8       _applicable0               101312b8 f   FFTW3l:buffered.obj
 0001:00130374       _applicable                10131374 f   FFTW3l:buffered.obj
 0001:001303e0       _mkplan                    101313e0 f   FFTW3l:buffered.obj
 0001:001306a8       _mksolver                  101316a8 f   FFTW3l:buffered.obj
 0001:0000c108       _apply                     1000d108 f   FFTW3f:nop2.obj
 0001:00130118       _applicable                10131118 f   FFTW3l:nop.obj
 0001:000999ac       _print                     1009a9ac f   FFTW3d:nop.obj
 0001:00130174       _mkplan                    10131174 f   FFTW3l:nop.obj
 0001:001301b0       _mksolver                  101311b0 f   FFTW3l:nop.obj
 0001:0012fe1c       _apply                     10130e1c f   FFTW3l:vrank-geq1.obj
 0001:0009d504       _awake                     1009e504 f   FFTW3d:vrank-geq1-rdft2.obj
 0001:0012d740       _destroy                   1012e740 f   FFTW3l:vrank-geq1.obj
 0001:00008144       _print                     10009144 f   FFTW3f:vrank-geq1.obj
 0001:0012d770       _pickdim                   1012e770 f   FFTW3l:vrank-geq1.obj
 0001:0012fe98       _applicable0               10130e98 f   FFTW3l:vrank-geq1.obj
 0001:0012fef0       _applicable                10130ef0 f   FFTW3l:vrank-geq1.obj
 0001:0012ffe4       _mkplan                    10130fe4 f   FFTW3l:vrank-geq1.obj
 0001:001300c0       _mksolver                  101310c0 f   FFTW3l:vrank-geq1.obj
 0001:0012fcd8       _applicable                10130cd8 f   FFTW3l:rank0.obj
 0001:0012fd1c       _apply_1                   10130d1c f   FFTW3l:rank0.obj
 0001:00096648       _applicable_1              10097648 f   FFTW3d:rank0.obj
 0001:000994c8       _apply_vec                 1009a4c8 f   FFTW3d:rank0.obj
 0001:000995b0       _applicable_vec            1009a5b0 f   FFTW3d:rank0.obj
 0001:0012fd2c       _apply_io1                 10130d2c f   FFTW3l:rank0.obj
 0001:0012fd44       _applicable_io1            10130d44 f   FFTW3l:rank0.obj
 0001:000051b0       _print                     100061b0 f   FFTW3f:rank0.obj
 0001:0012fd78       _mkplan                    10130d78 f   FFTW3l:rank0.obj
 0001:0012fddc       _mksolver                  10130ddc f   FFTW3l:rank0.obj
 0001:0009bf58       _apply_before              1009cf58 f   FFTW3d:rank-geq2.obj
 0001:0012fa04       _mkcld_before              10130a04 f   FFTW3l:indirect.obj
 0001:0012fa38       _apply_after               10130a38 f   FFTW3l:indirect.obj
 0001:0012fa60       _mkcld_after               10130a60 f   FFTW3l:indirect.obj
 0001:00134e34       _destroy                   10135e34 f   FFTW3l:buffered2.obj
 0001:0000d5f4       _awake                     1000e5f4 f   FFTW3f:rank-geq2-rdft2.obj
 0001:00004cc8       _print                     10005cc8 f   FFTW3f:indirect.obj
 0001:0012fa94       _applicable0               10130a94 f   FFTW3l:indirect.obj
 0001:0012fb84       _applicable                10130b84 f   FFTW3l:indirect.obj
 0001:0012fbc0       _mkplan                    10130bc0 f   FFTW3l:indirect.obj
 0001:0012fc98       _mksolver                  10130c98 f   FFTW3l:indirect.obj
 0001:0000c108       _apply                     1000d108 f   FFTW3f:nop2.obj
 0001:0012f948       _applicable                10130948 f   FFTW3l:nop.obj
 0001:0009911c       _print                     1009a11c f   FFTW3d:nop.obj
 0001:0012f9a4       _mkplan                    101309a4 f   FFTW3l:nop.obj
 0001:0012f9e0       _mksolver                  101309e0 f   FFTW3l:nop.obj
 0001:00098284       _apply_aux                 10099284 f   FFTW3d:rader.obj
 0001:0012eda4       _apply                     1012fda4 f   FFTW3l:rader.obj
 0001:0012efd0       _apply_dit                 1012ffd0 f   FFTW3l:rader.obj
 0001:0012f1cc       _mktwiddle                 101301cc f   FFTW3l:rader.obj
 0001:0012f330       _free_twiddle              10130330 f   FFTW3l:rader.obj
 0001:0012f344       _awake                     10130344 f   FFTW3l:rader.obj
 0001:0012f394       _awake_dit                 10130394 f   FFTW3l:rader.obj
 0001:001338f0       _destroy                   101348f0 f   FFTW3l:dht-rader.obj
 0001:0012f3e4       _destroy_dit               101303e4 f   FFTW3l:rader.obj
 0001:0000756c       _print_aux                 1000856c f   FFTW3f:rader.obj
 0001:0012f3fc       _print                     101303fc f   FFTW3l:rader.obj
 0001:0012f41c       _print_dit                 1013041c f   FFTW3l:rader.obj
 0001:0012f444       _applicable0               10130444 f   FFTW3l:rader.obj
 0001:0012f488       _applicable0_dit           10130488 f   FFTW3l:rader.obj
 0001:0012f4c4       _applicable                101304c4 f   FFTW3l:rader.obj
 0001:0012f4f4       _applicable_dit            101304f4 f   FFTW3l:rader.obj
 0001:0012f524       _mkP                       10130524 f   FFTW3l:rader.obj
 0001:0012f740       _mkplan                    10130740 f   FFTW3l:rader.obj
 0001:0012f7bc       _mkplan_dit                101307bc f   FFTW3l:rader.obj
 0001:0012f900       _mksolver                  10130900 f   FFTW3l:rader.obj
 0001:0012f910       _mksolver_dit              10130910 f   FFTW3l:rader.obj
 0001:0012e8a0       _apply                     1012f8a0 f   FFTW3l:generic.obj
 0001:0012eb74       _awake                     1012fb74 f   FFTW3l:generic.obj
 0001:0012d740       _destroy                   1012e740 f   FFTW3l:vrank-geq1.obj
 0001:0012ebac       _print                     1012fbac f   FFTW3l:generic.obj
 0001:0012ebc8       _applicable0               1012fbc8 f   FFTW3l:generic.obj
 0001:0012ec04       _applicable                1012fc04 f   FFTW3l:generic.obj
 0001:0012ec50       _mkplan                    1012fc50 f   FFTW3l:generic.obj
 0001:0012ed80       _mksolver                  1012fd80 f   FFTW3l:generic.obj
 0001:0012e24c       _apply                     1012f24c f   FFTW3l:buffered.obj
 0001:0013028c       _awake                     1013128c f   FFTW3l:buffered.obj
 0001:0012e384       _destroy                   1012f384 f   FFTW3l:buffered.obj
 0001:0012e3a8       _print                     1012f3a8 f   FFTW3l:buffered.obj
 0001:0000d14c       _compute_nbuf              1000e14c f   FFTW3f:buffered2.obj
 0001:0000857c       _toobig                    1000957c f   FFTW3f:buffered.obj
 0001:0012e3e4       _applicable0               1012f3e4 f   FFTW3l:buffered.obj
 0001:0012e4a0       _applicable                1012f4a0 f   FFTW3l:buffered.obj
 0001:0012e50c       _mkplan                    1012f50c f   FFTW3l:buffered.obj
 0001:0012e870       _mksolver                  1012f870 f   FFTW3l:buffered.obj
 0001:000970c8       _t                         100980c8 f   FFTW3d:vrank3-transpose.obj
 0001:0012dd3c       _apply                     1012ed3c f   FFTW3l:vrank3-transpose.obj
 0001:0012dd60       _apply_general             1012ed60 f   FFTW3l:vrank3-transpose.obj
 0001:0012ddc4       _apply_slow                1012edc4 f   FFTW3l:vrank3-transpose.obj
 0001:0012de50       _pickdim                   1012ee50 f   FFTW3l:vrank3-transpose.obj
 0001:0012df54       _applicable0               1012ef54 f   FFTW3l:vrank3-transpose.obj
 0001:0012dfb0       _applicable                1012efb0 f   FFTW3l:vrank3-transpose.obj
 0001:0012e060       _print                     1012f060 f   FFTW3l:vrank3-transpose.obj
 0001:0012e080       _mkplan                    1012f080 f   FFTW3l:vrank3-transpose.obj
 0001:0012e228       _mksolver                  1012f228 f   FFTW3l:vrank3-transpose.obj
 0001:0012d9f0       _t                         1012e9f0 f   FFTW3l:vrank2-transpose.obj
 0001:0012daa4       _apply                     1012eaa4 f   FFTW3l:vrank2-transpose.obj
 0001:0012dac4       _apply_general             1012eac4 f   FFTW3l:vrank2-transpose.obj
 0001:0012db18       _apply_slow                1012eb18 f   FFTW3l:vrank2-transpose.obj
 0001:0012db7c       _applicable                1012eb7c f   FFTW3l:vrank2-transpose.obj
 0001:00005af0       _print                     10006af0 f   FFTW3f:vrank2-transpose.obj
 0001:0012dc04       _mkplan                    1012ec04 f   FFTW3l:vrank2-transpose.obj
 0001:0012dd18       _mksolver                  1012ed18 f   FFTW3l:vrank2-transpose.obj
 0001:0012d678       _apply                     1012e678 f   FFTW3l:vrank-geq1.obj
 0001:0009d504       _awake                     1009e504 f   FFTW3d:vrank-geq1-rdft2.obj
 0001:0012d740       _destroy                   1012e740 f   FFTW3l:vrank-geq1.obj
 0001:0012d750       _print                     1012e750 f   FFTW3l:vrank-geq1.obj
 0001:0012d770       _pickdim                   1012e770 f   FFTW3l:vrank-geq1.obj
 0001:0012d794       _applicable0               1012e794 f   FFTW3l:vrank-geq1.obj
 0001:0012d7ec       _applicable                1012e7ec f   FFTW3l:vrank-geq1.obj
 0001:0012d8bc       _mkplan                    1012e8bc f   FFTW3l:vrank-geq1.obj
 0001:0012d998       _mksolver                  1012e998 f   FFTW3l:vrank-geq1.obj
 0001:00005274       _apply                     10006274 f   FFTW3f:rank-geq2.obj
 0001:0000d5f4       _awake                     1000e5f4 f   FFTW3f:rank-geq2-rdft2.obj
 0001:00134e34       _destroy                   10135e34 f   FFTW3l:buffered2.obj
 0001:0012d3b4       _print                     1012e3b4 f   FFTW3l:rank-geq2.obj
 0001:0012d3d4       _picksplit                 1012e3d4 f   FFTW3l:rank-geq2.obj
 0001:0012d414       _applicable0               1012e414 f   FFTW3l:rank-geq2.obj
 0001:0012d458       _applicable                1012e458 f   FFTW3l:rank-geq2.obj
 0001:0012d4c8       _mkplan                    1012e4c8 f   FFTW3l:rank-geq2.obj
 0001:0012d620       _mksolver                  1012e620 f   FFTW3l:rank-geq2.obj
 0001:0012d1b0       _applicable                1012e1b0 f   FFTW3l:rank0.obj
 0001:0009662c       _apply_1                   1009762c f   FFTW3d:rank0.obj
 0001:00096648       _applicable_1              10097648 f   FFTW3d:rank0.obj
 0001:0009665c       _apply_vec                 1009765c f   FFTW3d:rank0.obj
 0001:0012d1f4       _applicable_vec            1012e1f4 f   FFTW3l:rank0.obj
 0001:00096748       _apply_io1                 10097748 f   FFTW3d:rank0.obj
 0001:0012d214       _applicable_io1            1012e214 f   FFTW3l:rank0.obj
 0001:0012d248       _apply_io2r                1012e248 f   FFTW3l:rank0.obj
 0001:0012d264       _applicable_io2r           1012e264 f   FFTW3l:rank0.obj
 0001:0012d2ac       _apply_io2i                1012e2ac f   FFTW3l:rank0.obj
 0001:0012d2c8       _applicable_io2i           1012e2c8 f   FFTW3l:rank0.obj
 0001:000051b0       _print                     100061b0 f   FFTW3f:rank0.obj
 0001:0012d310       _mkplan                    1012e310 f   FFTW3l:rank0.obj
 0001:0012d374       _mksolver                  1012e374 f   FFTW3l:rank0.obj
 0001:00005274       _apply_before              10006274 f   FFTW3f:rank-geq2.obj
 0001:0012cecc       _mkcld_before              1012decc f   FFTW3l:indirect.obj
 0001:0012cf00       _apply_after               1012df00 f   FFTW3l:indirect.obj
 0001:0012cf34       _mkcld_after               1012df34 f   FFTW3l:indirect.obj
 0001:00134e34       _destroy                   10135e34 f   FFTW3l:buffered2.obj
 0001:0000d5f4       _awake                     1000e5f4 f   FFTW3f:rank-geq2-rdft2.obj
 0001:00004cc8       _print                     10005cc8 f   FFTW3f:indirect.obj
 0001:0012cf68       _applicable0               1012df68 f   FFTW3l:indirect.obj
 0001:0012d058       _applicable                1012e058 f   FFTW3l:indirect.obj
 0001:0012d094       _mkplan                    1012e094 f   FFTW3l:indirect.obj
 0001:0012d170       _mksolver                  1012e170 f   FFTW3l:indirect.obj
 0001:0012cd10       _measure                   1012dd10 f   FFTW3l:timer.obj
 0001:00004bc4       _getticks                  10005bc4 f   FFTW3f:timer.obj
 0001:00095fe0       _get_prime_factors         10096fe0 f   FFTW3d:primes.obj
 0001:0012c830       _doblock                   1012d830 f   FFTW3l:md5.obj
 0001:0009591c       _strides_contig            1009691c f   FFTW3d:tensor7.obj
 0001:0012c338       _recur                     1012d338 f   FFTW3l:zero.obj
 0001:0012c0c0       _dimcpy                    1012d0c0 f   FFTW3l:tensor5.obj
 0001:00003b0c       _rowmajor_kosherp          10004b0c f   FFTW3f:mktensor-rowmajor.obj
 0001:00003800       _iodims_kosherp            10004800 f   FFTW3f:mktensor-iodims.obj
 0001:00094bc8       _mygetc                    10095bc8 f   FFTW3d:scan.obj
 0001:0012b830       _myungetc                  1012c830 f   FFTW3l:scan.obj
 0001:0012b83c       _eat_blanks                1012c83c f   FFTW3l:scan.obj
 0001:0012b870       _mygets                    1012c870 f   FFTW3l:scan.obj
 0001:0012b8f0       _getlong                   1012c8f0 f   FFTW3l:scan.obj
 0001:0012b9ac       _vscan                     1012c9ac f   FFTW3l:scan.obj
 0001:0012bb28       _scan                      1012cb28 f   FFTW3l:scan.obj
 0001:0012b5f0       _map_flags                 1012c5f0 f   FFTW3l:mapflags.obj
 0001:0012a820       _addmod                    1012b820 f   FFTW3l:planner.obj
 0001:0012a834       _sgrow                     1012b834 f   FFTW3l:planner.obj
 0001:0012a950       _register_solver           1012b950 f   FFTW3l:planner.obj
 0001:0012a9b0       _slookup                   1012b9b0 f   FFTW3l:planner.obj
 0001:00093eac       _h1                        10094eac f   FFTW3d:planner.obj
 0001:0012aa64       _h2                        1012ba64 f   FFTW3l:planner.obj
 0001:0012aa80       _md5hash                   1012ba80 f   FFTW3l:planner.obj
 0001:000025f8       _md5eq                     100035f8 f   FFTW3f:planner.obj
 0001:0012aac0       _sigcpy                    1012bac0 f   FFTW3l:planner.obj
 0001:0012aae0       _hlookup                   1012bae0 f   FFTW3l:planner.obj
 0001:0012aba4       _hinsert0                  1012bba4 f   FFTW3l:planner.obj
 0001:0012ac28       _rehash                    1012bc28 f   FFTW3l:planner.obj
 0001:00094144       _minsz                     10095144 f   FFTW3d:planner.obj
 0001:0012ad24       _nextsz                    1012bd24 f   FFTW3l:planner.obj
 0001:0012ad38       _hgrow                     1012bd38 f   FFTW3l:planner.obj
 0001:0012ad60       _hshrink                   1012bd60 f   FFTW3l:planner.obj
 0001:0012ad7c       _merge_flags               1012bd7c f   FFTW3l:planner.obj
 0001:0012ad9c       _hinsert                   1012bd9c f   FFTW3l:planner.obj
 0001:0012ae28       _hcurse_subsumed           1012be28 f   FFTW3l:planner.obj
 0001:0012af3c       _invoke_hook               1012bf3c f   FFTW3l:planner.obj
 0001:0012af5c       _evaluate_plan             1012bf5c f   FFTW3l:planner.obj
 0001:00002af4       _invoke_solver             10003af4 f   FFTW3f:planner.obj
 0001:0012afec       _search                    1012bfec f   FFTW3l:planner.obj
 0001:0012b14c       _mkplan                    1012c14c f   FFTW3l:planner.obj
 0001:0012b250       _forget                    1012c250 f   FFTW3l:planner.obj
 0001:0012b2dc       _htab_destroy              1012c2dc f   FFTW3l:planner.obj
 0001:0012b300       _exprt                     1012c300 f   FFTW3l:planner.obj
 0001:0012b3b0       _imprt                     1012c3b0 f   FFTW3l:planner.obj
 0001:0012a1bc       _destroy                   1012b1bc f   FFTW3l:problem.obj
 0001:0012a1d8       _kind_hash                 1012b1d8 f   FFTW3l:problem.obj
 0001:0012a220       _hash                      1012b220 f   FFTW3l:problem.obj
 0001:0012a290       _recur                     1012b290 f   FFTW3l:problem.obj
 0001:0012a428       _print                     1012b428 f   FFTW3l:problem.obj
 0001:0012a494       _zero                      1012b494 f   FFTW3l:problem.obj
 0001:0012a4d0       _nontrivial                1012b4d0 f   FFTW3l:problem.obj
 0001:0012a1bc       _destroy                   1012b1bc f   FFTW3l:problem.obj
 0001:00129f30       _hash                      1012af30 f   FFTW3l:problem2.obj
 0001:00129fd0       _print                     1012afd0 f   FFTW3l:problem2.obj
 0001:0012a00c       _zero                      1012b00c f   FFTW3l:problem2.obj
 0001:0012a1bc       _destroy                   1012b1bc f   FFTW3l:problem.obj
 0001:00129d5c       _hash                      1012ad5c f   FFTW3l:problem.obj
 0001:00129dfc       _print                     1012adfc f   FFTW3l:problem.obj
 0001:00129e54       _zero                      1012ae54 f   FFTW3l:problem.obj
 0001:00001508       _myputs                    10002508 f   FFTW3f:print.obj
 0001:001299c0       _vprint                    1012a9c0 f   FFTW3l:print.obj
 0001:00129cf4       _print                     1012acf4 f   FFTW3l:print.obj
 0001:00128e14       _myflush                   10129e14 f   FFTW3l:mkprinter-file.obj
 0001:00128e40       _myputchr                  10129e40 f   FFTW3l:mkprinter-file.obj
 0001:00128e74       _mycleanup                 10129e74 f   FFTW3l:mkprinter-file.obj
 0001:0000063c       _getchr_str                1000163c f   FFTW3f:import-wisdom-from-string.obj
 0001:00128dd0       _mkscanner_str             10129dd0 f   FFTW3l:import-wisdom-from-string.obj
 0001:00091f10       _getchr_file               10092f10 f   FFTW3d:import-wisdom-from-file.obj
 0001:00128d78       _mkscanner_file            10129d78 f   FFTW3l:import-wisdom-from-file.obj
 0001:00000598       _getchr_generic            10001598 f   FFTW3f:import-wisdom.obj
 0001:00000428       _putchr_cnt                10001428 f   FFTW3f:export-wisdom-to-string.obj
 0001:00128bb8       _mkprinter_cnt             10129bb8 f   FFTW3l:export-wisdom-to-string.obj
 0001:00128bd8       _putchr_str                10129bd8 f   FFTW3l:export-wisdom-to-string.obj
 0001:00128bf4       _mkprinter_str             10129bf4 f   FFTW3l:export-wisdom-to-string.obj
 0001:00128b40       _putchr_generic            10129b40 f   FFTW3l:export-wisdom.obj

 5544 bytes saved through ICF

